
Smart_Pillbox.elf:     file format elf32-littlearm

Sections:
Idx Name          Size      VMA       LMA       File off  Algn
  0 .isr_vector   00000188  08000000  08000000  00010000  2**0
                  CONTENTS, ALLOC, LOAD, READONLY, DATA
  1 .text         000042f0  08000188  08000188  00010188  2**2
                  CONTENTS, ALLOC, LOAD, READONLY, CODE
  2 .rodata       00000010  08004478  08004478  00014478  2**2
                  CONTENTS, ALLOC, LOAD, READONLY, DATA
  3 .init_array   00000004  08004488  08004488  00014488  2**2
                  CONTENTS, ALLOC, LOAD, DATA
  4 .fini_array   00000004  0800448c  0800448c  0001448c  2**2
                  CONTENTS, ALLOC, LOAD, DATA
  5 .data         000006fc  20000000  08004490  00020000  2**2
                  CONTENTS, ALLOC, LOAD, DATA
  6 .ccmram       00000000  10000000  10000000  000206fc  2**0
                  CONTENTS
  7 .bss          00000054  200006fc  200006fc  000206fc  2**2
                  ALLOC
  8 ._user_heap_stack 00000080  20000750  20000750  000206fc  2**0
                  ALLOC
  9 .ARM.attributes 00000030  00000000  00000000  000206fc  2**0
                  CONTENTS, READONLY
 10 .debug_info   00009eb5  00000000  00000000  0002072c  2**0
                  CONTENTS, READONLY, DEBUGGING
 11 .debug_abbrev 0000212d  00000000  00000000  0002a5e1  2**0
                  CONTENTS, READONLY, DEBUGGING
 12 .debug_aranges 00000c80  00000000  00000000  0002c710  2**3
                  CONTENTS, READONLY, DEBUGGING
 13 .debug_ranges 00000b30  00000000  00000000  0002d390  2**3
                  CONTENTS, READONLY, DEBUGGING
 14 .debug_line   000050b0  00000000  00000000  0002dec0  2**0
                  CONTENTS, READONLY, DEBUGGING
 15 .debug_str    00002d6d  00000000  00000000  00032f70  2**0
                  CONTENTS, READONLY, DEBUGGING
 16 .comment      0000007c  00000000  00000000  00035cdd  2**0
                  CONTENTS, READONLY
 17 .debug_frame  00003174  00000000  00000000  00035d5c  2**2
                  CONTENTS, READONLY, DEBUGGING

Disassembly of section .text:

08000188 <__do_global_dtors_aux>:
 8000188:	b510      	push	{r4, lr}
 800018a:	4c05      	ldr	r4, [pc, #20]	; (80001a0 <__do_global_dtors_aux+0x18>)
 800018c:	7823      	ldrb	r3, [r4, #0]
 800018e:	b933      	cbnz	r3, 800019e <__do_global_dtors_aux+0x16>
 8000190:	4b04      	ldr	r3, [pc, #16]	; (80001a4 <__do_global_dtors_aux+0x1c>)
 8000192:	b113      	cbz	r3, 800019a <__do_global_dtors_aux+0x12>
 8000194:	4804      	ldr	r0, [pc, #16]	; (80001a8 <__do_global_dtors_aux+0x20>)
 8000196:	f3af 8000 	nop.w
 800019a:	2301      	movs	r3, #1
 800019c:	7023      	strb	r3, [r4, #0]
 800019e:	bd10      	pop	{r4, pc}
 80001a0:	200006fc 	.word	0x200006fc
 80001a4:	00000000 	.word	0x00000000
 80001a8:	08004460 	.word	0x08004460

080001ac <frame_dummy>:
 80001ac:	b508      	push	{r3, lr}
 80001ae:	4b03      	ldr	r3, [pc, #12]	; (80001bc <frame_dummy+0x10>)
 80001b0:	b11b      	cbz	r3, 80001ba <frame_dummy+0xe>
 80001b2:	4903      	ldr	r1, [pc, #12]	; (80001c0 <frame_dummy+0x14>)
 80001b4:	4803      	ldr	r0, [pc, #12]	; (80001c4 <frame_dummy+0x18>)
 80001b6:	f3af 8000 	nop.w
 80001ba:	bd08      	pop	{r3, pc}
 80001bc:	00000000 	.word	0x00000000
 80001c0:	20000700 	.word	0x20000700
 80001c4:	08004460 	.word	0x08004460

080001c8 <LL_ADC_REG_SetSequencerRanks>:
  *         (5) On STM32F3, ADC channel available only on all ADC instances, but
  *             only one ADC instance is allowed to be connected to VrefInt at the same time.
  * @retval None
  */
__STATIC_INLINE void LL_ADC_REG_SetSequencerRanks(ADC_TypeDef *ADCx, uint32_t Rank, uint32_t Channel)
{
 80001c8:	b480      	push	{r7}
 80001ca:	b089      	sub	sp, #36	; 0x24
 80001cc:	af00      	add	r7, sp, #0
 80001ce:	60f8      	str	r0, [r7, #12]
 80001d0:	60b9      	str	r1, [r7, #8]
 80001d2:	607a      	str	r2, [r7, #4]
  /* Set bits with content of parameter "Channel" with bits position          */
  /* in register and register position depending on parameter "Rank".         */
  /* Parameters "Rank" and "Channel" are used with masks because containing   */
  /* other bits reserved for other purpose.                                   */
  __IO uint32_t *preg = __ADC_PTR_REG_OFFSET(ADCx->SQR1, __ADC_MASK_SHIFT(Rank, ADC_REG_SQRX_REGOFFSET_MASK));
 80001d4:	68fb      	ldr	r3, [r7, #12]
 80001d6:	3330      	adds	r3, #48	; 0x30
 80001d8:	4619      	mov	r1, r3
 80001da:	68bb      	ldr	r3, [r7, #8]
 80001dc:	f403 7340 	and.w	r3, r3, #768	; 0x300
 80001e0:	f44f 7240 	mov.w	r2, #768	; 0x300
 80001e4:	61ba      	str	r2, [r7, #24]
  uint32_t result;

#if ((defined (__ARM_ARCH_7M__      ) && (__ARM_ARCH_7M__      == 1)) || \
     (defined (__ARM_ARCH_7EM__     ) && (__ARM_ARCH_7EM__     == 1)) || \
     (defined (__ARM_ARCH_8M_MAIN__ ) && (__ARM_ARCH_8M_MAIN__ == 1))    )
   __ASM volatile ("rbit %0, %1" : "=r" (result) : "r" (value) );
 80001e6:	69ba      	ldr	r2, [r7, #24]
 80001e8:	fa92 f2a2 	rbit	r2, r2
 80001ec:	617a      	str	r2, [r7, #20]
    result |= value & 1U;
    s--;
  }
  result <<= s;                        /* shift when v's highest bits are zero */
#endif
  return result;
 80001ee:	697a      	ldr	r2, [r7, #20]
 80001f0:	fab2 f282 	clz	r2, r2
 80001f4:	b2d2      	uxtb	r2, r2
 80001f6:	40d3      	lsrs	r3, r2
 80001f8:	009b      	lsls	r3, r3, #2
 80001fa:	440b      	add	r3, r1
 80001fc:	61fb      	str	r3, [r7, #28]
  
  MODIFY_REG(*preg,
 80001fe:	69fb      	ldr	r3, [r7, #28]
 8000200:	681a      	ldr	r2, [r3, #0]
 8000202:	68bb      	ldr	r3, [r7, #8]
 8000204:	f003 031f 	and.w	r3, r3, #31
 8000208:	211f      	movs	r1, #31
 800020a:	fa01 f303 	lsl.w	r3, r1, r3
 800020e:	43db      	mvns	r3, r3
 8000210:	401a      	ands	r2, r3
 8000212:	687b      	ldr	r3, [r7, #4]
 8000214:	0e9b      	lsrs	r3, r3, #26
 8000216:	f003 011f 	and.w	r1, r3, #31
 800021a:	68bb      	ldr	r3, [r7, #8]
 800021c:	f003 031f 	and.w	r3, r3, #31
 8000220:	fa01 f303 	lsl.w	r3, r1, r3
 8000224:	431a      	orrs	r2, r3
 8000226:	69fb      	ldr	r3, [r7, #28]
 8000228:	601a      	str	r2, [r3, #0]
             ADC_CHANNEL_ID_NUMBER_MASK_POSBIT0 << (Rank & ADC_REG_RANK_ID_SQRX_MASK),
             ((Channel & ADC_CHANNEL_ID_NUMBER_MASK) >> ADC_CHANNEL_ID_NUMBER_BITOFFSET_POS) << (Rank & ADC_REG_RANK_ID_SQRX_MASK));
}
 800022a:	bf00      	nop
 800022c:	3724      	adds	r7, #36	; 0x24
 800022e:	46bd      	mov	sp, r7
 8000230:	f85d 7b04 	ldr.w	r7, [sp], #4
 8000234:	4770      	bx	lr

08000236 <LL_ADC_SetChannelSamplingTime>:
  *         @arg @ref LL_ADC_SAMPLINGTIME_181CYCLES_5
  *         @arg @ref LL_ADC_SAMPLINGTIME_601CYCLES_5
  * @retval None
  */
__STATIC_INLINE void LL_ADC_SetChannelSamplingTime(ADC_TypeDef *ADCx, uint32_t Channel, uint32_t SamplingTime)
{
 8000236:	b480      	push	{r7}
 8000238:	b08d      	sub	sp, #52	; 0x34
 800023a:	af00      	add	r7, sp, #0
 800023c:	60f8      	str	r0, [r7, #12]
 800023e:	60b9      	str	r1, [r7, #8]
 8000240:	607a      	str	r2, [r7, #4]
  /* Set bits with content of parameter "SamplingTime" with bits position     */
  /* in register and register position depending on parameter "Channel".      */
  /* Parameter "Channel" is used with masks because containing                */
  /* other bits reserved for other purpose.                                   */
  __IO uint32_t *preg = __ADC_PTR_REG_OFFSET(ADCx->SMPR1, __ADC_MASK_SHIFT(Channel, ADC_CHANNEL_SMPRX_REGOFFSET_MASK));
 8000242:	68fb      	ldr	r3, [r7, #12]
 8000244:	3314      	adds	r3, #20
 8000246:	4619      	mov	r1, r3
 8000248:	68bb      	ldr	r3, [r7, #8]
 800024a:	f003 7300 	and.w	r3, r3, #33554432	; 0x2000000
 800024e:	f04f 7200 	mov.w	r2, #33554432	; 0x2000000
 8000252:	61ba      	str	r2, [r7, #24]
   __ASM volatile ("rbit %0, %1" : "=r" (result) : "r" (value) );
 8000254:	69ba      	ldr	r2, [r7, #24]
 8000256:	fa92 f2a2 	rbit	r2, r2
 800025a:	617a      	str	r2, [r7, #20]
  return result;
 800025c:	697a      	ldr	r2, [r7, #20]
 800025e:	fab2 f282 	clz	r2, r2
 8000262:	b2d2      	uxtb	r2, r2
 8000264:	40d3      	lsrs	r3, r2
 8000266:	009b      	lsls	r3, r3, #2
 8000268:	440b      	add	r3, r1
 800026a:	62fb      	str	r3, [r7, #44]	; 0x2c
  
  MODIFY_REG(*preg,
 800026c:	6afb      	ldr	r3, [r7, #44]	; 0x2c
 800026e:	681a      	ldr	r2, [r3, #0]
 8000270:	68bb      	ldr	r3, [r7, #8]
 8000272:	f003 73f8 	and.w	r3, r3, #32505856	; 0x1f00000
 8000276:	f04f 71f8 	mov.w	r1, #32505856	; 0x1f00000
 800027a:	6239      	str	r1, [r7, #32]
   __ASM volatile ("rbit %0, %1" : "=r" (result) : "r" (value) );
 800027c:	6a39      	ldr	r1, [r7, #32]
 800027e:	fa91 f1a1 	rbit	r1, r1
 8000282:	61f9      	str	r1, [r7, #28]
  return result;
 8000284:	69f9      	ldr	r1, [r7, #28]
 8000286:	fab1 f181 	clz	r1, r1
 800028a:	b2c9      	uxtb	r1, r1
 800028c:	40cb      	lsrs	r3, r1
 800028e:	2107      	movs	r1, #7
 8000290:	fa01 f303 	lsl.w	r3, r1, r3
 8000294:	43db      	mvns	r3, r3
 8000296:	401a      	ands	r2, r3
 8000298:	68bb      	ldr	r3, [r7, #8]
 800029a:	f003 73f8 	and.w	r3, r3, #32505856	; 0x1f00000
 800029e:	f04f 71f8 	mov.w	r1, #32505856	; 0x1f00000
 80002a2:	62b9      	str	r1, [r7, #40]	; 0x28
   __ASM volatile ("rbit %0, %1" : "=r" (result) : "r" (value) );
 80002a4:	6ab9      	ldr	r1, [r7, #40]	; 0x28
 80002a6:	fa91 f1a1 	rbit	r1, r1
 80002aa:	6279      	str	r1, [r7, #36]	; 0x24
  return result;
 80002ac:	6a79      	ldr	r1, [r7, #36]	; 0x24
 80002ae:	fab1 f181 	clz	r1, r1
 80002b2:	b2c9      	uxtb	r1, r1
 80002b4:	40cb      	lsrs	r3, r1
 80002b6:	6879      	ldr	r1, [r7, #4]
 80002b8:	fa01 f303 	lsl.w	r3, r1, r3
 80002bc:	431a      	orrs	r2, r3
 80002be:	6afb      	ldr	r3, [r7, #44]	; 0x2c
 80002c0:	601a      	str	r2, [r3, #0]
             ADC_SMPR1_SMP0 << __ADC_MASK_SHIFT(Channel, ADC_CHANNEL_SMPx_BITOFFSET_MASK),
             SamplingTime   << __ADC_MASK_SHIFT(Channel, ADC_CHANNEL_SMPx_BITOFFSET_MASK));
}
 80002c2:	bf00      	nop
 80002c4:	3734      	adds	r7, #52	; 0x34
 80002c6:	46bd      	mov	sp, r7
 80002c8:	f85d 7b04 	ldr.w	r7, [sp], #4
 80002cc:	4770      	bx	lr
	...

080002d0 <LL_ADC_SetChannelSingleDiff>:
  *         @arg @ref LL_ADC_SINGLE_ENDED
  *         @arg @ref LL_ADC_DIFFERENTIAL_ENDED
  * @retval None
  */
__STATIC_INLINE void LL_ADC_SetChannelSingleDiff(ADC_TypeDef *ADCx, uint32_t Channel, uint32_t SingleDiff)
{
 80002d0:	b480      	push	{r7}
 80002d2:	b085      	sub	sp, #20
 80002d4:	af00      	add	r7, sp, #0
 80002d6:	60f8      	str	r0, [r7, #12]
 80002d8:	60b9      	str	r1, [r7, #8]
 80002da:	607a      	str	r2, [r7, #4]
  /* Bits of channels in single or differential mode are set only for         */
  /* differential mode (for single mode, mask of bits allowed to be set is    */
  /* shifted out of range of bits of channels in single or differential mode. */
  MODIFY_REG(ADCx->DIFSEL,
 80002dc:	68fb      	ldr	r3, [r7, #12]
 80002de:	f8d3 20b0 	ldr.w	r2, [r3, #176]	; 0xb0
 80002e2:	68b9      	ldr	r1, [r7, #8]
 80002e4:	4b0b      	ldr	r3, [pc, #44]	; (8000314 <LL_ADC_SetChannelSingleDiff+0x44>)
 80002e6:	400b      	ands	r3, r1
 80002e8:	43db      	mvns	r3, r3
 80002ea:	401a      	ands	r2, r3
 80002ec:	687b      	ldr	r3, [r7, #4]
 80002ee:	f003 0318 	and.w	r3, r3, #24
 80002f2:	4908      	ldr	r1, [pc, #32]	; (8000314 <LL_ADC_SetChannelSingleDiff+0x44>)
 80002f4:	40d9      	lsrs	r1, r3
 80002f6:	68bb      	ldr	r3, [r7, #8]
 80002f8:	4019      	ands	r1, r3
 80002fa:	4b06      	ldr	r3, [pc, #24]	; (8000314 <LL_ADC_SetChannelSingleDiff+0x44>)
 80002fc:	400b      	ands	r3, r1
 80002fe:	431a      	orrs	r2, r3
 8000300:	68fb      	ldr	r3, [r7, #12]
 8000302:	f8c3 20b0 	str.w	r2, [r3, #176]	; 0xb0
             Channel & ADC_SINGLEDIFF_CHANNEL_MASK,
             (Channel & ADC_SINGLEDIFF_CHANNEL_MASK) & (ADC_DIFSEL_DIFSEL >> (SingleDiff & ADC_SINGLEDIFF_CHANNEL_SHIFT_MASK)));
}
 8000306:	bf00      	nop
 8000308:	3714      	adds	r7, #20
 800030a:	46bd      	mov	sp, r7
 800030c:	f85d 7b04 	ldr.w	r7, [sp], #4
 8000310:	4770      	bx	lr
 8000312:	bf00      	nop
 8000314:	0007fffe 	.word	0x0007fffe

08000318 <LL_ADC_EnableInternalRegulator>:
  * @rmtoll CR       ADVREGEN       LL_ADC_EnableInternalRegulator
  * @param  ADCx ADC instance
  * @retval None
  */
__STATIC_INLINE void LL_ADC_EnableInternalRegulator(ADC_TypeDef *ADCx)
{
 8000318:	b480      	push	{r7}
 800031a:	b083      	sub	sp, #12
 800031c:	af00      	add	r7, sp, #0
 800031e:	6078      	str	r0, [r7, #4]
  /* 1. Set the intermediate state before moving the ADC voltage regulator    */
  /*    to state enable.                                                      */
  CLEAR_BIT(ADCx->CR, (ADC_CR_ADVREGEN_1 | ADC_CR_ADVREGEN_0));
 8000320:	687b      	ldr	r3, [r7, #4]
 8000322:	689b      	ldr	r3, [r3, #8]
 8000324:	f023 5240 	bic.w	r2, r3, #805306368	; 0x30000000
 8000328:	687b      	ldr	r3, [r7, #4]
 800032a:	609a      	str	r2, [r3, #8]
  /* 2. Set the final state of ADC voltage regulator enable                   */
  /*    (ADVREGEN bits set to 0x01).                                          */
  /* Note: Write register with some additional bits forced to state reset     */
  /*       instead of modifying only the selected bit for this function,      */
  /*       to not interfere with bits with HW property "rs".                  */
  MODIFY_REG(ADCx->CR,
 800032c:	687b      	ldr	r3, [r7, #4]
 800032e:	689b      	ldr	r3, [r3, #8]
 8000330:	f023 4310 	bic.w	r3, r3, #2415919104	; 0x90000000
 8000334:	f023 033f 	bic.w	r3, r3, #63	; 0x3f
 8000338:	f043 5280 	orr.w	r2, r3, #268435456	; 0x10000000
 800033c:	687b      	ldr	r3, [r7, #4]
 800033e:	609a      	str	r2, [r3, #8]
             ADC_CR_BITS_PROPERTY_RS,
             ADC_CR_ADVREGEN_0);
}
 8000340:	bf00      	nop
 8000342:	370c      	adds	r7, #12
 8000344:	46bd      	mov	sp, r7
 8000346:	f85d 7b04 	ldr.w	r7, [sp], #4
 800034a:	4770      	bx	lr

0800034c <LL_ADC_Enable>:
  * @rmtoll CR       ADEN           LL_ADC_Enable
  * @param  ADCx ADC instance
  * @retval None
  */
__STATIC_INLINE void LL_ADC_Enable(ADC_TypeDef *ADCx)
{
 800034c:	b480      	push	{r7}
 800034e:	b083      	sub	sp, #12
 8000350:	af00      	add	r7, sp, #0
 8000352:	6078      	str	r0, [r7, #4]
  /* Note: Write register with some additional bits forced to state reset     */
  /*       instead of modifying only the selected bit for this function,      */
  /*       to not interfere with bits with HW property "rs".                  */
  MODIFY_REG(ADCx->CR,
 8000354:	687b      	ldr	r3, [r7, #4]
 8000356:	689b      	ldr	r3, [r3, #8]
 8000358:	f023 4300 	bic.w	r3, r3, #2147483648	; 0x80000000
 800035c:	f023 033f 	bic.w	r3, r3, #63	; 0x3f
 8000360:	f043 0201 	orr.w	r2, r3, #1
 8000364:	687b      	ldr	r3, [r7, #4]
 8000366:	609a      	str	r2, [r3, #8]
             ADC_CR_BITS_PROPERTY_RS,
             ADC_CR_ADEN);
}
 8000368:	bf00      	nop
 800036a:	370c      	adds	r7, #12
 800036c:	46bd      	mov	sp, r7
 800036e:	f85d 7b04 	ldr.w	r7, [sp], #4
 8000372:	4770      	bx	lr

08000374 <LL_ADC_StartCalibration>:
  *         @arg @ref LL_ADC_SINGLE_ENDED
  *         @arg @ref LL_ADC_DIFFERENTIAL_ENDED
  * @retval None
  */
__STATIC_INLINE void LL_ADC_StartCalibration(ADC_TypeDef *ADCx, uint32_t SingleDiff)
{
 8000374:	b480      	push	{r7}
 8000376:	b083      	sub	sp, #12
 8000378:	af00      	add	r7, sp, #0
 800037a:	6078      	str	r0, [r7, #4]
 800037c:	6039      	str	r1, [r7, #0]
  /* Note: Write register with some additional bits forced to state reset     */
  /*       instead of modifying only the selected bit for this function,      */
  /*       to not interfere with bits with HW property "rs".                  */
  MODIFY_REG(ADCx->CR,
 800037e:	687b      	ldr	r3, [r7, #4]
 8000380:	689b      	ldr	r3, [r3, #8]
 8000382:	f023 4340 	bic.w	r3, r3, #3221225472	; 0xc0000000
 8000386:	f023 033f 	bic.w	r3, r3, #63	; 0x3f
 800038a:	683a      	ldr	r2, [r7, #0]
 800038c:	f002 4280 	and.w	r2, r2, #1073741824	; 0x40000000
 8000390:	4313      	orrs	r3, r2
 8000392:	f043 4200 	orr.w	r2, r3, #2147483648	; 0x80000000
 8000396:	687b      	ldr	r3, [r7, #4]
 8000398:	609a      	str	r2, [r3, #8]
             ADC_CR_ADCALDIF | ADC_CR_BITS_PROPERTY_RS,
             ADC_CR_ADCAL | (SingleDiff & ADC_SINGLEDIFF_CALIB_START_MASK));
}
 800039a:	bf00      	nop
 800039c:	370c      	adds	r7, #12
 800039e:	46bd      	mov	sp, r7
 80003a0:	f85d 7b04 	ldr.w	r7, [sp], #4
 80003a4:	4770      	bx	lr

080003a6 <LL_ADC_IsCalibrationOnGoing>:
  * @rmtoll CR       ADCAL          LL_ADC_IsCalibrationOnGoing
  * @param  ADCx ADC instance
  * @retval 0: calibration complete, 1: calibration in progress.
  */
__STATIC_INLINE uint32_t LL_ADC_IsCalibrationOnGoing(ADC_TypeDef *ADCx)
{
 80003a6:	b480      	push	{r7}
 80003a8:	b083      	sub	sp, #12
 80003aa:	af00      	add	r7, sp, #0
 80003ac:	6078      	str	r0, [r7, #4]
  return (READ_BIT(ADCx->CR, ADC_CR_ADCAL) == (ADC_CR_ADCAL));
 80003ae:	687b      	ldr	r3, [r7, #4]
 80003b0:	689b      	ldr	r3, [r3, #8]
 80003b2:	f003 4300 	and.w	r3, r3, #2147483648	; 0x80000000
 80003b6:	f1b3 4f00 	cmp.w	r3, #2147483648	; 0x80000000
 80003ba:	bf0c      	ite	eq
 80003bc:	2301      	moveq	r3, #1
 80003be:	2300      	movne	r3, #0
 80003c0:	b2db      	uxtb	r3, r3
}
 80003c2:	4618      	mov	r0, r3
 80003c4:	370c      	adds	r7, #12
 80003c6:	46bd      	mov	sp, r7
 80003c8:	f85d 7b04 	ldr.w	r7, [sp], #4
 80003cc:	4770      	bx	lr

080003ce <LL_ADC_REG_StartConversion>:
  * @rmtoll CR       ADSTART        LL_ADC_REG_StartConversion
  * @param  ADCx ADC instance
  * @retval None
  */
__STATIC_INLINE void LL_ADC_REG_StartConversion(ADC_TypeDef *ADCx)
{
 80003ce:	b480      	push	{r7}
 80003d0:	b083      	sub	sp, #12
 80003d2:	af00      	add	r7, sp, #0
 80003d4:	6078      	str	r0, [r7, #4]
  /* Note: Write register with some additional bits forced to state reset     */
  /*       instead of modifying only the selected bit for this function,      */
  /*       to not interfere with bits with HW property "rs".                  */
  MODIFY_REG(ADCx->CR,
 80003d6:	687b      	ldr	r3, [r7, #4]
 80003d8:	689b      	ldr	r3, [r3, #8]
 80003da:	f023 4300 	bic.w	r3, r3, #2147483648	; 0x80000000
 80003de:	f023 033f 	bic.w	r3, r3, #63	; 0x3f
 80003e2:	f043 0204 	orr.w	r2, r3, #4
 80003e6:	687b      	ldr	r3, [r7, #4]
 80003e8:	609a      	str	r2, [r3, #8]
             ADC_CR_BITS_PROPERTY_RS,
             ADC_CR_ADSTART);
}
 80003ea:	bf00      	nop
 80003ec:	370c      	adds	r7, #12
 80003ee:	46bd      	mov	sp, r7
 80003f0:	f85d 7b04 	ldr.w	r7, [sp], #4
 80003f4:	4770      	bx	lr

080003f6 <LL_ADC_REG_ReadConversionData8>:
  * @rmtoll DR       RDATA          LL_ADC_REG_ReadConversionData8
  * @param  ADCx ADC instance
  * @retval Value between Min_Data=0x00 and Max_Data=0xFF
  */
__STATIC_INLINE uint8_t LL_ADC_REG_ReadConversionData8(ADC_TypeDef *ADCx)
{
 80003f6:	b480      	push	{r7}
 80003f8:	b083      	sub	sp, #12
 80003fa:	af00      	add	r7, sp, #0
 80003fc:	6078      	str	r0, [r7, #4]
  return (uint8_t)(READ_BIT(ADCx->DR, ADC_DR_RDATA));
 80003fe:	687b      	ldr	r3, [r7, #4]
 8000400:	6c1b      	ldr	r3, [r3, #64]	; 0x40
 8000402:	b2db      	uxtb	r3, r3
}
 8000404:	4618      	mov	r0, r3
 8000406:	370c      	adds	r7, #12
 8000408:	46bd      	mov	sp, r7
 800040a:	f85d 7b04 	ldr.w	r7, [sp], #4
 800040e:	4770      	bx	lr

08000410 <LL_ADC_IsActiveFlag_ADRDY>:
  * @rmtoll ISR      ADRDY          LL_ADC_IsActiveFlag_ADRDY
  * @param  ADCx ADC instance
  * @retval State of bit (1 or 0).
  */
__STATIC_INLINE uint32_t LL_ADC_IsActiveFlag_ADRDY(ADC_TypeDef *ADCx)
{
 8000410:	b480      	push	{r7}
 8000412:	b083      	sub	sp, #12
 8000414:	af00      	add	r7, sp, #0
 8000416:	6078      	str	r0, [r7, #4]
  return (READ_BIT(ADCx->ISR, LL_ADC_FLAG_ADRDY) == (LL_ADC_FLAG_ADRDY));
 8000418:	687b      	ldr	r3, [r7, #4]
 800041a:	681b      	ldr	r3, [r3, #0]
 800041c:	f003 0301 	and.w	r3, r3, #1
 8000420:	2b01      	cmp	r3, #1
 8000422:	bf0c      	ite	eq
 8000424:	2301      	moveq	r3, #1
 8000426:	2300      	movne	r3, #0
 8000428:	b2db      	uxtb	r3, r3
}
 800042a:	4618      	mov	r0, r3
 800042c:	370c      	adds	r7, #12
 800042e:	46bd      	mov	sp, r7
 8000430:	f85d 7b04 	ldr.w	r7, [sp], #4
 8000434:	4770      	bx	lr

08000436 <LL_ADC_IsActiveFlag_EOC>:
  * @rmtoll ISR      EOC            LL_ADC_IsActiveFlag_EOC
  * @param  ADCx ADC instance
  * @retval State of bit (1 or 0).
  */
__STATIC_INLINE uint32_t LL_ADC_IsActiveFlag_EOC(ADC_TypeDef *ADCx)
{
 8000436:	b480      	push	{r7}
 8000438:	b083      	sub	sp, #12
 800043a:	af00      	add	r7, sp, #0
 800043c:	6078      	str	r0, [r7, #4]
  return (READ_BIT(ADCx->ISR, ADC_ISR_EOC) == (ADC_ISR_EOC));
 800043e:	687b      	ldr	r3, [r7, #4]
 8000440:	681b      	ldr	r3, [r3, #0]
 8000442:	f003 0304 	and.w	r3, r3, #4
 8000446:	2b04      	cmp	r3, #4
 8000448:	bf0c      	ite	eq
 800044a:	2301      	moveq	r3, #1
 800044c:	2300      	movne	r3, #0
 800044e:	b2db      	uxtb	r3, r3
}
 8000450:	4618      	mov	r0, r3
 8000452:	370c      	adds	r7, #12
 8000454:	46bd      	mov	sp, r7
 8000456:	f85d 7b04 	ldr.w	r7, [sp], #4
 800045a:	4770      	bx	lr

0800045c <LL_ADC_ClearFlag_EOC>:
  * @rmtoll ISR      EOC            LL_ADC_ClearFlag_EOC
  * @param  ADCx ADC instance
  * @retval None
  */
__STATIC_INLINE void LL_ADC_ClearFlag_EOC(ADC_TypeDef *ADCx)
{
 800045c:	b480      	push	{r7}
 800045e:	b083      	sub	sp, #12
 8000460:	af00      	add	r7, sp, #0
 8000462:	6078      	str	r0, [r7, #4]
  WRITE_REG(ADCx->ISR, LL_ADC_FLAG_EOC);
 8000464:	687b      	ldr	r3, [r7, #4]
 8000466:	2204      	movs	r2, #4
 8000468:	601a      	str	r2, [r3, #0]
}
 800046a:	bf00      	nop
 800046c:	370c      	adds	r7, #12
 800046e:	46bd      	mov	sp, r7
 8000470:	f85d 7b04 	ldr.w	r7, [sp], #4
 8000474:	4770      	bx	lr
	...

08000478 <LL_AHB1_GRP1_EnableClock>:
  *
  *         (*) value not defined in all devices.
  * @retval None
*/
__STATIC_INLINE void LL_AHB1_GRP1_EnableClock(uint32_t Periphs)
{
 8000478:	b480      	push	{r7}
 800047a:	b085      	sub	sp, #20
 800047c:	af00      	add	r7, sp, #0
 800047e:	6078      	str	r0, [r7, #4]
  __IO uint32_t tmpreg;
  SET_BIT(RCC->AHBENR, Periphs);
 8000480:	4908      	ldr	r1, [pc, #32]	; (80004a4 <LL_AHB1_GRP1_EnableClock+0x2c>)
 8000482:	4b08      	ldr	r3, [pc, #32]	; (80004a4 <LL_AHB1_GRP1_EnableClock+0x2c>)
 8000484:	695a      	ldr	r2, [r3, #20]
 8000486:	687b      	ldr	r3, [r7, #4]
 8000488:	4313      	orrs	r3, r2
 800048a:	614b      	str	r3, [r1, #20]
  /* Delay after an RCC peripheral clock enabling */
  tmpreg = READ_BIT(RCC->AHBENR, Periphs);
 800048c:	4b05      	ldr	r3, [pc, #20]	; (80004a4 <LL_AHB1_GRP1_EnableClock+0x2c>)
 800048e:	695a      	ldr	r2, [r3, #20]
 8000490:	687b      	ldr	r3, [r7, #4]
 8000492:	4013      	ands	r3, r2
 8000494:	60fb      	str	r3, [r7, #12]
  (void)tmpreg;
 8000496:	68fb      	ldr	r3, [r7, #12]
}
 8000498:	bf00      	nop
 800049a:	3714      	adds	r7, #20
 800049c:	46bd      	mov	sp, r7
 800049e:	f85d 7b04 	ldr.w	r7, [sp], #4
 80004a2:	4770      	bx	lr
 80004a4:	40021000 	.word	0x40021000

080004a8 <MX_ADC1_Init>:
const uint32_t ADC_Sampling_Time_Map[ADC_Channel_Num] = {LL_ADC_SAMPLINGTIME_601CYCLES_5, LL_ADC_SAMPLINGTIME_601CYCLES_5};
/* USER CODE END 0 */

/* ADC1 init function */
void MX_ADC1_Init(void)
{
 80004a8:	b580      	push	{r7, lr}
 80004aa:	b094      	sub	sp, #80	; 0x50
 80004ac:	af00      	add	r7, sp, #0

  /* USER CODE BEGIN ADC1_Init 0 */

  /* USER CODE END ADC1_Init 0 */

  LL_ADC_InitTypeDef ADC_InitStruct = {0};
 80004ae:	f107 0340 	add.w	r3, r7, #64	; 0x40
 80004b2:	2200      	movs	r2, #0
 80004b4:	601a      	str	r2, [r3, #0]
 80004b6:	605a      	str	r2, [r3, #4]
 80004b8:	609a      	str	r2, [r3, #8]
  LL_ADC_REG_InitTypeDef ADC_REG_InitStruct = {0};
 80004ba:	f107 0328 	add.w	r3, r7, #40	; 0x28
 80004be:	2200      	movs	r2, #0
 80004c0:	601a      	str	r2, [r3, #0]
 80004c2:	605a      	str	r2, [r3, #4]
 80004c4:	609a      	str	r2, [r3, #8]
 80004c6:	60da      	str	r2, [r3, #12]
 80004c8:	611a      	str	r2, [r3, #16]
 80004ca:	615a      	str	r2, [r3, #20]
  LL_ADC_CommonInitTypeDef ADC_CommonInitStruct = {0};
 80004cc:	f107 0318 	add.w	r3, r7, #24
 80004d0:	2200      	movs	r2, #0
 80004d2:	601a      	str	r2, [r3, #0]
 80004d4:	605a      	str	r2, [r3, #4]
 80004d6:	609a      	str	r2, [r3, #8]
 80004d8:	60da      	str	r2, [r3, #12]

  LL_GPIO_InitTypeDef GPIO_InitStruct = {0};
 80004da:	463b      	mov	r3, r7
 80004dc:	2200      	movs	r2, #0
 80004de:	601a      	str	r2, [r3, #0]
 80004e0:	605a      	str	r2, [r3, #4]
 80004e2:	609a      	str	r2, [r3, #8]
 80004e4:	60da      	str	r2, [r3, #12]
 80004e6:	611a      	str	r2, [r3, #16]
 80004e8:	615a      	str	r2, [r3, #20]

  /* Peripheral clock enable */
  LL_AHB1_GRP1_EnableClock(LL_AHB1_GRP1_PERIPH_ADC12);
 80004ea:	f04f 5080 	mov.w	r0, #268435456	; 0x10000000
 80004ee:	f7ff ffc3 	bl	8000478 <LL_AHB1_GRP1_EnableClock>

  LL_AHB1_GRP1_EnableClock(LL_AHB1_GRP1_PERIPH_GPIOA);
 80004f2:	f44f 3000 	mov.w	r0, #131072	; 0x20000
 80004f6:	f7ff ffbf 	bl	8000478 <LL_AHB1_GRP1_EnableClock>
  /**ADC1 GPIO Configuration
  PA0   ------> ADC1_IN1
  PA1   ------> ADC1_IN2
  */
  GPIO_InitStruct.Pin = LL_GPIO_PIN_0|LL_GPIO_PIN_1;
 80004fa:	2303      	movs	r3, #3
 80004fc:	603b      	str	r3, [r7, #0]
  GPIO_InitStruct.Mode = LL_GPIO_MODE_ANALOG;
 80004fe:	2303      	movs	r3, #3
 8000500:	607b      	str	r3, [r7, #4]
  GPIO_InitStruct.Pull = LL_GPIO_PULL_NO;
 8000502:	2300      	movs	r3, #0
 8000504:	613b      	str	r3, [r7, #16]
  LL_GPIO_Init(GPIOA, &GPIO_InitStruct);
 8000506:	463b      	mov	r3, r7
 8000508:	4619      	mov	r1, r3
 800050a:	f04f 4090 	mov.w	r0, #1207959552	; 0x48000000
 800050e:	f002 fed2 	bl	80032b6 <LL_GPIO_Init>
  /* USER CODE BEGIN ADC1_Init 1 */

  /* USER CODE END ADC1_Init 1 */
  /** Common config
  */
  ADC_InitStruct.Resolution = LL_ADC_RESOLUTION_8B;
 8000512:	2310      	movs	r3, #16
 8000514:	643b      	str	r3, [r7, #64]	; 0x40
  ADC_InitStruct.DataAlignment = LL_ADC_DATA_ALIGN_RIGHT;
 8000516:	2300      	movs	r3, #0
 8000518:	647b      	str	r3, [r7, #68]	; 0x44
  ADC_InitStruct.LowPowerMode = LL_ADC_LP_MODE_NONE;
 800051a:	2300      	movs	r3, #0
 800051c:	64bb      	str	r3, [r7, #72]	; 0x48
  LL_ADC_Init(ADC1, &ADC_InitStruct);
 800051e:	f107 0340 	add.w	r3, r7, #64	; 0x40
 8000522:	4619      	mov	r1, r3
 8000524:	f04f 40a0 	mov.w	r0, #1342177280	; 0x50000000
 8000528:	f002 fd50 	bl	8002fcc <LL_ADC_Init>
  ADC_REG_InitStruct.TriggerSource = LL_ADC_REG_TRIG_SOFTWARE;
 800052c:	2300      	movs	r3, #0
 800052e:	62bb      	str	r3, [r7, #40]	; 0x28
  ADC_REG_InitStruct.SequencerLength = LL_ADC_REG_SEQ_SCAN_DISABLE;
 8000530:	2300      	movs	r3, #0
 8000532:	62fb      	str	r3, [r7, #44]	; 0x2c
  ADC_REG_InitStruct.SequencerDiscont = LL_ADC_REG_SEQ_DISCONT_DISABLE;
 8000534:	2300      	movs	r3, #0
 8000536:	633b      	str	r3, [r7, #48]	; 0x30
  ADC_REG_InitStruct.ContinuousMode = LL_ADC_REG_CONV_SINGLE;
 8000538:	2300      	movs	r3, #0
 800053a:	637b      	str	r3, [r7, #52]	; 0x34
  ADC_REG_InitStruct.DMATransfer = LL_ADC_REG_DMA_TRANSFER_LIMITED;
 800053c:	2301      	movs	r3, #1
 800053e:	63bb      	str	r3, [r7, #56]	; 0x38
  ADC_REG_InitStruct.Overrun = LL_ADC_REG_OVR_DATA_OVERWRITTEN;
 8000540:	f44f 5380 	mov.w	r3, #4096	; 0x1000
 8000544:	63fb      	str	r3, [r7, #60]	; 0x3c
  LL_ADC_REG_Init(ADC1, &ADC_REG_InitStruct);
 8000546:	f107 0328 	add.w	r3, r7, #40	; 0x28
 800054a:	4619      	mov	r1, r3
 800054c:	f04f 40a0 	mov.w	r0, #1342177280	; 0x50000000
 8000550:	f002 fd62 	bl	8003018 <LL_ADC_REG_Init>
  ADC_CommonInitStruct.CommonClock = LL_ADC_CLOCK_ASYNC_DIV1;
 8000554:	2300      	movs	r3, #0
 8000556:	61bb      	str	r3, [r7, #24]
  ADC_CommonInitStruct.Multimode = LL_ADC_MULTI_INDEPENDENT;
 8000558:	2300      	movs	r3, #0
 800055a:	61fb      	str	r3, [r7, #28]
  LL_ADC_CommonInit(__LL_ADC_COMMON_INSTANCE(ADC1), &ADC_CommonInitStruct);
 800055c:	f107 0318 	add.w	r3, r7, #24
 8000560:	4619      	mov	r1, r3
 8000562:	481a      	ldr	r0, [pc, #104]	; (80005cc <MX_ADC1_Init+0x124>)
 8000564:	f002 fcf2 	bl	8002f4c <LL_ADC_CommonInit>

  /* Enable ADC internal voltage regulator */
  LL_ADC_EnableInternalRegulator(ADC1);
 8000568:	f04f 40a0 	mov.w	r0, #1342177280	; 0x50000000
 800056c:	f7ff fed4 	bl	8000318 <LL_ADC_EnableInternalRegulator>
  /* Note: Variable divided by 2 to compensate partially */
  /* CPU processing cycles (depends on compilation optimization). */
  /* Note: If system core clock frequency is below 200kHz, wait time */
  /* is only a few CPU processing cycles. */
  uint32_t wait_loop_index;
  wait_loop_index = ((LL_ADC_DELAY_INTERNAL_REGUL_STAB_US * (SystemCoreClock / (100000 * 2))) / 10);
 8000570:	4b17      	ldr	r3, [pc, #92]	; (80005d0 <MX_ADC1_Init+0x128>)
 8000572:	681b      	ldr	r3, [r3, #0]
 8000574:	099b      	lsrs	r3, r3, #6
 8000576:	4a17      	ldr	r2, [pc, #92]	; (80005d4 <MX_ADC1_Init+0x12c>)
 8000578:	fba2 2303 	umull	r2, r3, r2, r3
 800057c:	099a      	lsrs	r2, r3, #6
 800057e:	4613      	mov	r3, r2
 8000580:	009b      	lsls	r3, r3, #2
 8000582:	4413      	add	r3, r2
 8000584:	005b      	lsls	r3, r3, #1
 8000586:	461a      	mov	r2, r3
 8000588:	4b13      	ldr	r3, [pc, #76]	; (80005d8 <MX_ADC1_Init+0x130>)
 800058a:	fba3 2302 	umull	r2, r3, r3, r2
 800058e:	08db      	lsrs	r3, r3, #3
 8000590:	64fb      	str	r3, [r7, #76]	; 0x4c
  while(wait_loop_index != 0)
 8000592:	e002      	b.n	800059a <MX_ADC1_Init+0xf2>
  {
    wait_loop_index--;
 8000594:	6cfb      	ldr	r3, [r7, #76]	; 0x4c
 8000596:	3b01      	subs	r3, #1
 8000598:	64fb      	str	r3, [r7, #76]	; 0x4c
  while(wait_loop_index != 0)
 800059a:	6cfb      	ldr	r3, [r7, #76]	; 0x4c
 800059c:	2b00      	cmp	r3, #0
 800059e:	d1f9      	bne.n	8000594 <MX_ADC1_Init+0xec>
  }
  /** Configure Regular Channel
  */
  LL_ADC_REG_SetSequencerRanks(ADC1, LL_ADC_REG_RANK_1, LL_ADC_CHANNEL_1);
 80005a0:	4a0e      	ldr	r2, [pc, #56]	; (80005dc <MX_ADC1_Init+0x134>)
 80005a2:	2106      	movs	r1, #6
 80005a4:	f04f 40a0 	mov.w	r0, #1342177280	; 0x50000000
 80005a8:	f7ff fe0e 	bl	80001c8 <LL_ADC_REG_SetSequencerRanks>
  LL_ADC_SetChannelSamplingTime(ADC1, LL_ADC_CHANNEL_1, LL_ADC_SAMPLINGTIME_601CYCLES_5);
 80005ac:	2207      	movs	r2, #7
 80005ae:	490b      	ldr	r1, [pc, #44]	; (80005dc <MX_ADC1_Init+0x134>)
 80005b0:	f04f 40a0 	mov.w	r0, #1342177280	; 0x50000000
 80005b4:	f7ff fe3f 	bl	8000236 <LL_ADC_SetChannelSamplingTime>
  LL_ADC_SetChannelSingleDiff(ADC1, LL_ADC_CHANNEL_1, LL_ADC_SINGLE_ENDED);
 80005b8:	227f      	movs	r2, #127	; 0x7f
 80005ba:	4908      	ldr	r1, [pc, #32]	; (80005dc <MX_ADC1_Init+0x134>)
 80005bc:	f04f 40a0 	mov.w	r0, #1342177280	; 0x50000000
 80005c0:	f7ff fe86 	bl	80002d0 <LL_ADC_SetChannelSingleDiff>
  /* USER CODE BEGIN ADC1_Init 2 */

  /* USER CODE END ADC1_Init 2 */

}
 80005c4:	bf00      	nop
 80005c6:	3750      	adds	r7, #80	; 0x50
 80005c8:	46bd      	mov	sp, r7
 80005ca:	bd80      	pop	{r7, pc}
 80005cc:	50000300 	.word	0x50000300
 80005d0:	200001fc 	.word	0x200001fc
 80005d4:	053e2d63 	.word	0x053e2d63
 80005d8:	cccccccd 	.word	0xcccccccd
 80005dc:	04300002 	.word	0x04300002

080005e0 <MX_ADC1_Enable>:

/* USER CODE BEGIN 1 */

/*This function enable ADC*/
void MX_ADC1_Enable(void)
{
 80005e0:	b580      	push	{r7, lr}
 80005e2:	af00      	add	r7, sp, #0
	LL_ADC_Enable(ADC1);
 80005e4:	f04f 40a0 	mov.w	r0, #1342177280	; 0x50000000
 80005e8:	f7ff feb0 	bl	800034c <LL_ADC_Enable>
	while(!LL_ADC_IsActiveFlag_ADRDY(ADC1));
 80005ec:	bf00      	nop
 80005ee:	f04f 40a0 	mov.w	r0, #1342177280	; 0x50000000
 80005f2:	f7ff ff0d 	bl	8000410 <LL_ADC_IsActiveFlag_ADRDY>
 80005f6:	4603      	mov	r3, r0
 80005f8:	2b00      	cmp	r3, #0
 80005fa:	d0f8      	beq.n	80005ee <MX_ADC1_Enable+0xe>

	return;
 80005fc:	bf00      	nop
}
 80005fe:	bd80      	pop	{r7, pc}

08000600 <MX_ADC1_Calibration>:
/*This Function start the ADC calibration and wait into the cycle until calibration is in progress*/
void MX_ADC1_Calibration(void)
{
 8000600:	b580      	push	{r7, lr}
 8000602:	af00      	add	r7, sp, #0
	LL_ADC_StartCalibration(ADC1, LL_ADC_SINGLE_ENDED);
 8000604:	217f      	movs	r1, #127	; 0x7f
 8000606:	f04f 40a0 	mov.w	r0, #1342177280	; 0x50000000
 800060a:	f7ff feb3 	bl	8000374 <LL_ADC_StartCalibration>
	while(LL_ADC_IsCalibrationOnGoing(ADC1));
 800060e:	bf00      	nop
 8000610:	f04f 40a0 	mov.w	r0, #1342177280	; 0x50000000
 8000614:	f7ff fec7 	bl	80003a6 <LL_ADC_IsCalibrationOnGoing>
 8000618:	4603      	mov	r3, r0
 800061a:	2b00      	cmp	r3, #0
 800061c:	d1f8      	bne.n	8000610 <MX_ADC1_Calibration+0x10>

	return;
 800061e:	bf00      	nop
}
 8000620:	bd80      	pop	{r7, pc}
	...

08000624 <MX_ADC1_SetChannel>:
 * just use one of the following arguments:
 * Channel 1: ADC_Channel_1
 * Channel 2: ADC_Channel_2
 */
void MX_ADC1_SetChannel(uint32_t Channel)
{
 8000624:	b580      	push	{r7, lr}
 8000626:	b082      	sub	sp, #8
 8000628:	af00      	add	r7, sp, #0
 800062a:	6078      	str	r0, [r7, #4]
	LL_ADC_REG_SetSequencerRanks(ADC1,LL_ADC_REG_RANK_1, ADC_Channel_Map[Channel]);
 800062c:	4a0d      	ldr	r2, [pc, #52]	; (8000664 <MX_ADC1_SetChannel+0x40>)
 800062e:	687b      	ldr	r3, [r7, #4]
 8000630:	f852 3023 	ldr.w	r3, [r2, r3, lsl #2]
 8000634:	461a      	mov	r2, r3
 8000636:	2106      	movs	r1, #6
 8000638:	f04f 40a0 	mov.w	r0, #1342177280	; 0x50000000
 800063c:	f7ff fdc4 	bl	80001c8 <LL_ADC_REG_SetSequencerRanks>
	LL_ADC_SetChannelSamplingTime(ADC1,ADC_Channel_Map[Channel],ADC_Sampling_Time_Map[Channel]);
 8000640:	4a08      	ldr	r2, [pc, #32]	; (8000664 <MX_ADC1_SetChannel+0x40>)
 8000642:	687b      	ldr	r3, [r7, #4]
 8000644:	f852 1023 	ldr.w	r1, [r2, r3, lsl #2]
 8000648:	4a07      	ldr	r2, [pc, #28]	; (8000668 <MX_ADC1_SetChannel+0x44>)
 800064a:	687b      	ldr	r3, [r7, #4]
 800064c:	f852 3023 	ldr.w	r3, [r2, r3, lsl #2]
 8000650:	461a      	mov	r2, r3
 8000652:	f04f 40a0 	mov.w	r0, #1342177280	; 0x50000000
 8000656:	f7ff fdee 	bl	8000236 <LL_ADC_SetChannelSamplingTime>

	return;
 800065a:	bf00      	nop
}
 800065c:	3708      	adds	r7, #8
 800065e:	46bd      	mov	sp, r7
 8000660:	bd80      	pop	{r7, pc}
 8000662:	bf00      	nop
 8000664:	08004478 	.word	0x08004478
 8000668:	08004480 	.word	0x08004480

0800066c <MX_ADC1_StartConversion>:

/*This function start the ADC conversion process*/
void MX_ADC1_StartConversion(void)
{
 800066c:	b580      	push	{r7, lr}
 800066e:	af00      	add	r7, sp, #0
	LL_ADC_REG_StartConversion(ADC1);
 8000670:	f04f 40a0 	mov.w	r0, #1342177280	; 0x50000000
 8000674:	f7ff feab 	bl	80003ce <LL_ADC_REG_StartConversion>
	/*This cycle waits until the end of conversion flag is active*/
	while(!LL_ADC_IsActiveFlag_EOC(ADC1));
 8000678:	bf00      	nop
 800067a:	f04f 40a0 	mov.w	r0, #1342177280	; 0x50000000
 800067e:	f7ff feda 	bl	8000436 <LL_ADC_IsActiveFlag_EOC>
 8000682:	4603      	mov	r3, r0
 8000684:	2b00      	cmp	r3, #0
 8000686:	d0f8      	beq.n	800067a <MX_ADC1_StartConversion+0xe>
	/*When ADC finish the conversion just clear the EOC flag*/
	LL_ADC_ClearFlag_EOC(ADC1);
 8000688:	f04f 40a0 	mov.w	r0, #1342177280	; 0x50000000
 800068c:	f7ff fee6 	bl	800045c <LL_ADC_ClearFlag_EOC>

	return;
 8000690:	bf00      	nop
}
 8000692:	bd80      	pop	{r7, pc}

08000694 <MX_ADC1_GetValue>:

/*This function get the ADC value on a 8 bits format*/
uint16_t MX_ADC1_GetValue(void)
{
 8000694:	b580      	push	{r7, lr}
 8000696:	b082      	sub	sp, #8
 8000698:	af00      	add	r7, sp, #0
	uint16_t ADC_value;
	ADC_value=LL_ADC_REG_ReadConversionData8(ADC1);
 800069a:	f04f 40a0 	mov.w	r0, #1342177280	; 0x50000000
 800069e:	f7ff feaa 	bl	80003f6 <LL_ADC_REG_ReadConversionData8>
 80006a2:	4603      	mov	r3, r0
 80006a4:	80fb      	strh	r3, [r7, #6]
	return ADC_value;
 80006a6:	88fb      	ldrh	r3, [r7, #6]
}
 80006a8:	4618      	mov	r0, r3
 80006aa:	3708      	adds	r7, #8
 80006ac:	46bd      	mov	sp, r7
 80006ae:	bd80      	pop	{r7, pc}

080006b0 <LL_AHB1_GRP1_EnableClock>:
{
 80006b0:	b480      	push	{r7}
 80006b2:	b085      	sub	sp, #20
 80006b4:	af00      	add	r7, sp, #0
 80006b6:	6078      	str	r0, [r7, #4]
  SET_BIT(RCC->AHBENR, Periphs);
 80006b8:	4908      	ldr	r1, [pc, #32]	; (80006dc <LL_AHB1_GRP1_EnableClock+0x2c>)
 80006ba:	4b08      	ldr	r3, [pc, #32]	; (80006dc <LL_AHB1_GRP1_EnableClock+0x2c>)
 80006bc:	695a      	ldr	r2, [r3, #20]
 80006be:	687b      	ldr	r3, [r7, #4]
 80006c0:	4313      	orrs	r3, r2
 80006c2:	614b      	str	r3, [r1, #20]
  tmpreg = READ_BIT(RCC->AHBENR, Periphs);
 80006c4:	4b05      	ldr	r3, [pc, #20]	; (80006dc <LL_AHB1_GRP1_EnableClock+0x2c>)
 80006c6:	695a      	ldr	r2, [r3, #20]
 80006c8:	687b      	ldr	r3, [r7, #4]
 80006ca:	4013      	ands	r3, r2
 80006cc:	60fb      	str	r3, [r7, #12]
  (void)tmpreg;
 80006ce:	68fb      	ldr	r3, [r7, #12]
}
 80006d0:	bf00      	nop
 80006d2:	3714      	adds	r7, #20
 80006d4:	46bd      	mov	sp, r7
 80006d6:	f85d 7b04 	ldr.w	r7, [sp], #4
 80006da:	4770      	bx	lr
 80006dc:	40021000 	.word	0x40021000

080006e0 <LL_GPIO_IsInputPinSet>:
  *         @arg @ref LL_GPIO_PIN_15
  *         @arg @ref LL_GPIO_PIN_ALL
  * @retval State of bit (1 or 0).
  */
__STATIC_INLINE uint32_t LL_GPIO_IsInputPinSet(GPIO_TypeDef *GPIOx, uint32_t PinMask)
{
 80006e0:	b480      	push	{r7}
 80006e2:	b083      	sub	sp, #12
 80006e4:	af00      	add	r7, sp, #0
 80006e6:	6078      	str	r0, [r7, #4]
 80006e8:	6039      	str	r1, [r7, #0]
  return (READ_BIT(GPIOx->IDR, PinMask) == (PinMask));
 80006ea:	687b      	ldr	r3, [r7, #4]
 80006ec:	691a      	ldr	r2, [r3, #16]
 80006ee:	683b      	ldr	r3, [r7, #0]
 80006f0:	401a      	ands	r2, r3
 80006f2:	683b      	ldr	r3, [r7, #0]
 80006f4:	429a      	cmp	r2, r3
 80006f6:	bf0c      	ite	eq
 80006f8:	2301      	moveq	r3, #1
 80006fa:	2300      	movne	r3, #0
 80006fc:	b2db      	uxtb	r3, r3
}
 80006fe:	4618      	mov	r0, r3
 8000700:	370c      	adds	r7, #12
 8000702:	46bd      	mov	sp, r7
 8000704:	f85d 7b04 	ldr.w	r7, [sp], #4
 8000708:	4770      	bx	lr

0800070a <LL_GPIO_SetOutputPin>:
  *         @arg @ref LL_GPIO_PIN_15
  *         @arg @ref LL_GPIO_PIN_ALL
  * @retval None
  */
__STATIC_INLINE void LL_GPIO_SetOutputPin(GPIO_TypeDef *GPIOx, uint32_t PinMask)
{
 800070a:	b480      	push	{r7}
 800070c:	b083      	sub	sp, #12
 800070e:	af00      	add	r7, sp, #0
 8000710:	6078      	str	r0, [r7, #4]
 8000712:	6039      	str	r1, [r7, #0]
  WRITE_REG(GPIOx->BSRR, PinMask);
 8000714:	687b      	ldr	r3, [r7, #4]
 8000716:	683a      	ldr	r2, [r7, #0]
 8000718:	619a      	str	r2, [r3, #24]
}
 800071a:	bf00      	nop
 800071c:	370c      	adds	r7, #12
 800071e:	46bd      	mov	sp, r7
 8000720:	f85d 7b04 	ldr.w	r7, [sp], #4
 8000724:	4770      	bx	lr

08000726 <LL_GPIO_ResetOutputPin>:
  *         @arg @ref LL_GPIO_PIN_15
  *         @arg @ref LL_GPIO_PIN_ALL
  * @retval None
  */
__STATIC_INLINE void LL_GPIO_ResetOutputPin(GPIO_TypeDef *GPIOx, uint32_t PinMask)
{
 8000726:	b480      	push	{r7}
 8000728:	b083      	sub	sp, #12
 800072a:	af00      	add	r7, sp, #0
 800072c:	6078      	str	r0, [r7, #4]
 800072e:	6039      	str	r1, [r7, #0]
  WRITE_REG(GPIOx->BRR, PinMask);
 8000730:	687b      	ldr	r3, [r7, #4]
 8000732:	683a      	ldr	r2, [r7, #0]
 8000734:	629a      	str	r2, [r3, #40]	; 0x28
}
 8000736:	bf00      	nop
 8000738:	370c      	adds	r7, #12
 800073a:	46bd      	mov	sp, r7
 800073c:	f85d 7b04 	ldr.w	r7, [sp], #4
 8000740:	4770      	bx	lr
	...

08000744 <MX_GPIO_Init>:
/* USER CODE END 1 */

/** Configure pins
*/
void MX_GPIO_Init(void)
{
 8000744:	b580      	push	{r7, lr}
 8000746:	b086      	sub	sp, #24
 8000748:	af00      	add	r7, sp, #0

  LL_GPIO_InitTypeDef GPIO_InitStruct = {0};
 800074a:	463b      	mov	r3, r7
 800074c:	2200      	movs	r2, #0
 800074e:	601a      	str	r2, [r3, #0]
 8000750:	605a      	str	r2, [r3, #4]
 8000752:	609a      	str	r2, [r3, #8]
 8000754:	60da      	str	r2, [r3, #12]
 8000756:	611a      	str	r2, [r3, #16]
 8000758:	615a      	str	r2, [r3, #20]

  /* GPIO Ports Clock Enable */
  LL_AHB1_GRP1_EnableClock(LL_AHB1_GRP1_PERIPH_GPIOC);
 800075a:	f44f 2000 	mov.w	r0, #524288	; 0x80000
 800075e:	f7ff ffa7 	bl	80006b0 <LL_AHB1_GRP1_EnableClock>
  LL_AHB1_GRP1_EnableClock(LL_AHB1_GRP1_PERIPH_GPIOA);
 8000762:	f44f 3000 	mov.w	r0, #131072	; 0x20000
 8000766:	f7ff ffa3 	bl	80006b0 <LL_AHB1_GRP1_EnableClock>
  LL_AHB1_GRP1_EnableClock(LL_AHB1_GRP1_PERIPH_GPIOB);
 800076a:	f44f 2080 	mov.w	r0, #262144	; 0x40000
 800076e:	f7ff ff9f 	bl	80006b0 <LL_AHB1_GRP1_EnableClock>

  /**/
  LL_GPIO_SetOutputPin(GPIOA, LCD_RESET_Pin|LCD_A0_Pin);
 8000772:	f44f 71a0 	mov.w	r1, #320	; 0x140
 8000776:	f04f 4090 	mov.w	r0, #1207959552	; 0x48000000
 800077a:	f7ff ffc6 	bl	800070a <LL_GPIO_SetOutputPin>

  /**/
  LL_GPIO_SetOutputPin(LCD_CS_N_GPIO_Port, LCD_CS_N_Pin);
 800077e:	2140      	movs	r1, #64	; 0x40
 8000780:	483b      	ldr	r0, [pc, #236]	; (8000870 <MX_GPIO_Init+0x12c>)
 8000782:	f7ff ffc2 	bl	800070a <LL_GPIO_SetOutputPin>

  /**/
  LL_GPIO_ResetOutputPin(LED_G_GPIO_Port, LED_G_Pin);
 8000786:	2180      	movs	r1, #128	; 0x80
 8000788:	483a      	ldr	r0, [pc, #232]	; (8000874 <MX_GPIO_Init+0x130>)
 800078a:	f7ff ffcc 	bl	8000726 <LL_GPIO_ResetOutputPin>

  /**/
  LL_GPIO_ResetOutputPin(LED_B_GPIO_Port, LED_B_Pin);
 800078e:	f44f 7100 	mov.w	r1, #512	; 0x200
 8000792:	f04f 4090 	mov.w	r0, #1207959552	; 0x48000000
 8000796:	f7ff ffc6 	bl	8000726 <LL_GPIO_ResetOutputPin>

  /**/
  LL_GPIO_ResetOutputPin(LED_R_GPIO_Port, LED_R_Pin);
 800079a:	2110      	movs	r1, #16
 800079c:	4834      	ldr	r0, [pc, #208]	; (8000870 <MX_GPIO_Init+0x12c>)
 800079e:	f7ff ffc2 	bl	8000726 <LL_GPIO_ResetOutputPin>

  /**/
  GPIO_InitStruct.Pin = J_RIGHT_Pin|J_LEFT_Pin;
 80007a2:	2303      	movs	r3, #3
 80007a4:	603b      	str	r3, [r7, #0]
  GPIO_InitStruct.Mode = LL_GPIO_MODE_INPUT;
 80007a6:	2300      	movs	r3, #0
 80007a8:	607b      	str	r3, [r7, #4]
  GPIO_InitStruct.Pull = LL_GPIO_PULL_NO;
 80007aa:	2300      	movs	r3, #0
 80007ac:	613b      	str	r3, [r7, #16]
  LL_GPIO_Init(GPIOC, &GPIO_InitStruct);
 80007ae:	463b      	mov	r3, r7
 80007b0:	4619      	mov	r1, r3
 80007b2:	4830      	ldr	r0, [pc, #192]	; (8000874 <MX_GPIO_Init+0x130>)
 80007b4:	f002 fd7f 	bl	80032b6 <LL_GPIO_Init>

  /**/
  GPIO_InitStruct.Pin = J_UP_Pin;
 80007b8:	2310      	movs	r3, #16
 80007ba:	603b      	str	r3, [r7, #0]
  GPIO_InitStruct.Mode = LL_GPIO_MODE_INPUT;
 80007bc:	2300      	movs	r3, #0
 80007be:	607b      	str	r3, [r7, #4]
  GPIO_InitStruct.Pull = LL_GPIO_PULL_NO;
 80007c0:	2300      	movs	r3, #0
 80007c2:	613b      	str	r3, [r7, #16]
  LL_GPIO_Init(J_UP_GPIO_Port, &GPIO_InitStruct);
 80007c4:	463b      	mov	r3, r7
 80007c6:	4619      	mov	r1, r3
 80007c8:	f04f 4090 	mov.w	r0, #1207959552	; 0x48000000
 80007cc:	f002 fd73 	bl	80032b6 <LL_GPIO_Init>

  /**/
  GPIO_InitStruct.Pin = LCD_RESET_Pin|LCD_A0_Pin;
 80007d0:	f44f 73a0 	mov.w	r3, #320	; 0x140
 80007d4:	603b      	str	r3, [r7, #0]
  GPIO_InitStruct.Mode = LL_GPIO_MODE_OUTPUT;
 80007d6:	2301      	movs	r3, #1
 80007d8:	607b      	str	r3, [r7, #4]
  GPIO_InitStruct.Speed = LL_GPIO_SPEED_FREQ_LOW;
 80007da:	2300      	movs	r3, #0
 80007dc:	60bb      	str	r3, [r7, #8]
  GPIO_InitStruct.OutputType = LL_GPIO_OUTPUT_PUSHPULL;
 80007de:	2300      	movs	r3, #0
 80007e0:	60fb      	str	r3, [r7, #12]
  GPIO_InitStruct.Pull = LL_GPIO_PULL_UP;
 80007e2:	2301      	movs	r3, #1
 80007e4:	613b      	str	r3, [r7, #16]
  LL_GPIO_Init(GPIOA, &GPIO_InitStruct);
 80007e6:	463b      	mov	r3, r7
 80007e8:	4619      	mov	r1, r3
 80007ea:	f04f 4090 	mov.w	r0, #1207959552	; 0x48000000
 80007ee:	f002 fd62 	bl	80032b6 <LL_GPIO_Init>

  /**/
  GPIO_InitStruct.Pin = J_DOWN_Pin|J_CENTER_Pin;
 80007f2:	2321      	movs	r3, #33	; 0x21
 80007f4:	603b      	str	r3, [r7, #0]
  GPIO_InitStruct.Mode = LL_GPIO_MODE_INPUT;
 80007f6:	2300      	movs	r3, #0
 80007f8:	607b      	str	r3, [r7, #4]
  GPIO_InitStruct.Pull = LL_GPIO_PULL_NO;
 80007fa:	2300      	movs	r3, #0
 80007fc:	613b      	str	r3, [r7, #16]
  LL_GPIO_Init(GPIOB, &GPIO_InitStruct);
 80007fe:	463b      	mov	r3, r7
 8000800:	4619      	mov	r1, r3
 8000802:	481b      	ldr	r0, [pc, #108]	; (8000870 <MX_GPIO_Init+0x12c>)
 8000804:	f002 fd57 	bl	80032b6 <LL_GPIO_Init>

  /**/
  GPIO_InitStruct.Pin = LED_G_Pin;
 8000808:	2380      	movs	r3, #128	; 0x80
 800080a:	603b      	str	r3, [r7, #0]
  GPIO_InitStruct.Mode = LL_GPIO_MODE_OUTPUT;
 800080c:	2301      	movs	r3, #1
 800080e:	607b      	str	r3, [r7, #4]
  GPIO_InitStruct.Speed = LL_GPIO_SPEED_FREQ_LOW;
 8000810:	2300      	movs	r3, #0
 8000812:	60bb      	str	r3, [r7, #8]
  GPIO_InitStruct.OutputType = LL_GPIO_OUTPUT_PUSHPULL;
 8000814:	2300      	movs	r3, #0
 8000816:	60fb      	str	r3, [r7, #12]
  GPIO_InitStruct.Pull = LL_GPIO_PULL_NO;
 8000818:	2300      	movs	r3, #0
 800081a:	613b      	str	r3, [r7, #16]
  LL_GPIO_Init(LED_G_GPIO_Port, &GPIO_InitStruct);
 800081c:	463b      	mov	r3, r7
 800081e:	4619      	mov	r1, r3
 8000820:	4814      	ldr	r0, [pc, #80]	; (8000874 <MX_GPIO_Init+0x130>)
 8000822:	f002 fd48 	bl	80032b6 <LL_GPIO_Init>

  /**/
  GPIO_InitStruct.Pin = LED_B_Pin;
 8000826:	f44f 7300 	mov.w	r3, #512	; 0x200
 800082a:	603b      	str	r3, [r7, #0]
  GPIO_InitStruct.Mode = LL_GPIO_MODE_OUTPUT;
 800082c:	2301      	movs	r3, #1
 800082e:	607b      	str	r3, [r7, #4]
  GPIO_InitStruct.Speed = LL_GPIO_SPEED_FREQ_LOW;
 8000830:	2300      	movs	r3, #0
 8000832:	60bb      	str	r3, [r7, #8]
  GPIO_InitStruct.OutputType = LL_GPIO_OUTPUT_PUSHPULL;
 8000834:	2300      	movs	r3, #0
 8000836:	60fb      	str	r3, [r7, #12]
  GPIO_InitStruct.Pull = LL_GPIO_PULL_NO;
 8000838:	2300      	movs	r3, #0
 800083a:	613b      	str	r3, [r7, #16]
  LL_GPIO_Init(LED_B_GPIO_Port, &GPIO_InitStruct);
 800083c:	463b      	mov	r3, r7
 800083e:	4619      	mov	r1, r3
 8000840:	f04f 4090 	mov.w	r0, #1207959552	; 0x48000000
 8000844:	f002 fd37 	bl	80032b6 <LL_GPIO_Init>

  /**/
  GPIO_InitStruct.Pin = LED_R_Pin|LCD_CS_N_Pin;
 8000848:	2350      	movs	r3, #80	; 0x50
 800084a:	603b      	str	r3, [r7, #0]
  GPIO_InitStruct.Mode = LL_GPIO_MODE_OUTPUT;
 800084c:	2301      	movs	r3, #1
 800084e:	607b      	str	r3, [r7, #4]
  GPIO_InitStruct.Speed = LL_GPIO_SPEED_FREQ_LOW;
 8000850:	2300      	movs	r3, #0
 8000852:	60bb      	str	r3, [r7, #8]
  GPIO_InitStruct.OutputType = LL_GPIO_OUTPUT_PUSHPULL;
 8000854:	2300      	movs	r3, #0
 8000856:	60fb      	str	r3, [r7, #12]
  GPIO_InitStruct.Pull = LL_GPIO_PULL_NO;
 8000858:	2300      	movs	r3, #0
 800085a:	613b      	str	r3, [r7, #16]
  LL_GPIO_Init(GPIOB, &GPIO_InitStruct);
 800085c:	463b      	mov	r3, r7
 800085e:	4619      	mov	r1, r3
 8000860:	4803      	ldr	r0, [pc, #12]	; (8000870 <MX_GPIO_Init+0x12c>)
 8000862:	f002 fd28 	bl	80032b6 <LL_GPIO_Init>

}
 8000866:	bf00      	nop
 8000868:	3718      	adds	r7, #24
 800086a:	46bd      	mov	sp, r7
 800086c:	bd80      	pop	{r7, pc}
 800086e:	bf00      	nop
 8000870:	48000400 	.word	0x48000400
 8000874:	48000800 	.word	0x48000800

08000878 <MX_Joystick_Up>:

/* USER CODE BEGIN 2 */
short MX_Joystick_Up(){
 8000878:	b580      	push	{r7, lr}
 800087a:	b082      	sub	sp, #8
 800087c:	af00      	add	r7, sp, #0
	/* Deteccion de Joystick Up */
	short v = LL_GPIO_IsInputPinSet(GPIOA,J_UP_Pin);
 800087e:	2110      	movs	r1, #16
 8000880:	f04f 4090 	mov.w	r0, #1207959552	; 0x48000000
 8000884:	f7ff ff2c 	bl	80006e0 <LL_GPIO_IsInputPinSet>
 8000888:	4603      	mov	r3, r0
 800088a:	80fb      	strh	r3, [r7, #6]
	return v;
 800088c:	f9b7 3006 	ldrsh.w	r3, [r7, #6]
}
 8000890:	4618      	mov	r0, r3
 8000892:	3708      	adds	r7, #8
 8000894:	46bd      	mov	sp, r7
 8000896:	bd80      	pop	{r7, pc}

08000898 <MX_Joystick_Down>:
short MX_Joystick_Down(){
 8000898:	b580      	push	{r7, lr}
 800089a:	b082      	sub	sp, #8
 800089c:	af00      	add	r7, sp, #0
	/* Deteccion de Joystick Down */
	short v = LL_GPIO_IsInputPinSet(GPIOB,J_DOWN_Pin);
 800089e:	2101      	movs	r1, #1
 80008a0:	4805      	ldr	r0, [pc, #20]	; (80008b8 <MX_Joystick_Down+0x20>)
 80008a2:	f7ff ff1d 	bl	80006e0 <LL_GPIO_IsInputPinSet>
 80008a6:	4603      	mov	r3, r0
 80008a8:	80fb      	strh	r3, [r7, #6]
	return v;
 80008aa:	f9b7 3006 	ldrsh.w	r3, [r7, #6]
}
 80008ae:	4618      	mov	r0, r3
 80008b0:	3708      	adds	r7, #8
 80008b2:	46bd      	mov	sp, r7
 80008b4:	bd80      	pop	{r7, pc}
 80008b6:	bf00      	nop
 80008b8:	48000400 	.word	0x48000400

080008bc <MX_Joystick_Right>:
short MX_Joystick_Right(){
 80008bc:	b580      	push	{r7, lr}
 80008be:	b082      	sub	sp, #8
 80008c0:	af00      	add	r7, sp, #0
	/* Deteccion de Joystick Right */
	short v = LL_GPIO_IsInputPinSet(GPIOC,J_RIGHT_Pin);
 80008c2:	2101      	movs	r1, #1
 80008c4:	4805      	ldr	r0, [pc, #20]	; (80008dc <MX_Joystick_Right+0x20>)
 80008c6:	f7ff ff0b 	bl	80006e0 <LL_GPIO_IsInputPinSet>
 80008ca:	4603      	mov	r3, r0
 80008cc:	80fb      	strh	r3, [r7, #6]
	return v;
 80008ce:	f9b7 3006 	ldrsh.w	r3, [r7, #6]
}
 80008d2:	4618      	mov	r0, r3
 80008d4:	3708      	adds	r7, #8
 80008d6:	46bd      	mov	sp, r7
 80008d8:	bd80      	pop	{r7, pc}
 80008da:	bf00      	nop
 80008dc:	48000800 	.word	0x48000800

080008e0 <MX_Joystick_Left>:
short MX_Joystick_Left(){
 80008e0:	b580      	push	{r7, lr}
 80008e2:	b082      	sub	sp, #8
 80008e4:	af00      	add	r7, sp, #0
	/* Deteccion de Joystick Left */
	short v = LL_GPIO_IsInputPinSet(GPIOC,J_LEFT_Pin);
 80008e6:	2102      	movs	r1, #2
 80008e8:	4805      	ldr	r0, [pc, #20]	; (8000900 <MX_Joystick_Left+0x20>)
 80008ea:	f7ff fef9 	bl	80006e0 <LL_GPIO_IsInputPinSet>
 80008ee:	4603      	mov	r3, r0
 80008f0:	80fb      	strh	r3, [r7, #6]
	return v;
 80008f2:	f9b7 3006 	ldrsh.w	r3, [r7, #6]
}
 80008f6:	4618      	mov	r0, r3
 80008f8:	3708      	adds	r7, #8
 80008fa:	46bd      	mov	sp, r7
 80008fc:	bd80      	pop	{r7, pc}
 80008fe:	bf00      	nop
 8000900:	48000800 	.word	0x48000800

08000904 <MX_Joystick_Center>:
short MX_Joystick_Center(){
 8000904:	b580      	push	{r7, lr}
 8000906:	b082      	sub	sp, #8
 8000908:	af00      	add	r7, sp, #0
	/* Deteccion de Joystick Center */
	short v = LL_GPIO_IsInputPinSet(GPIOB,J_CENTER_Pin);
 800090a:	2120      	movs	r1, #32
 800090c:	4805      	ldr	r0, [pc, #20]	; (8000924 <MX_Joystick_Center+0x20>)
 800090e:	f7ff fee7 	bl	80006e0 <LL_GPIO_IsInputPinSet>
 8000912:	4603      	mov	r3, r0
 8000914:	80fb      	strh	r3, [r7, #6]
	return v;
 8000916:	f9b7 3006 	ldrsh.w	r3, [r7, #6]
}
 800091a:	4618      	mov	r0, r3
 800091c:	3708      	adds	r7, #8
 800091e:	46bd      	mov	sp, r7
 8000920:	bd80      	pop	{r7, pc}
 8000922:	bf00      	nop
 8000924:	48000400 	.word	0x48000400

08000928 <MX_RGB_Red>:
void MX_RGB_Red(short v){
 8000928:	b580      	push	{r7, lr}
 800092a:	b082      	sub	sp, #8
 800092c:	af00      	add	r7, sp, #0
 800092e:	4603      	mov	r3, r0
 8000930:	80fb      	strh	r3, [r7, #6]
	/* Activacion o desactivacion led R */
	if (v == 1)
 8000932:	f9b7 3006 	ldrsh.w	r3, [r7, #6]
 8000936:	2b01      	cmp	r3, #1
 8000938:	d104      	bne.n	8000944 <MX_RGB_Red+0x1c>
		LL_GPIO_SetOutputPin(GPIOB,LED_R_Pin);
 800093a:	2110      	movs	r1, #16
 800093c:	4807      	ldr	r0, [pc, #28]	; (800095c <MX_RGB_Red+0x34>)
 800093e:	f7ff fee4 	bl	800070a <LL_GPIO_SetOutputPin>
	else if (v == 0)
		LL_GPIO_ResetOutputPin(GPIOB,LED_R_Pin);
}
 8000942:	e007      	b.n	8000954 <MX_RGB_Red+0x2c>
	else if (v == 0)
 8000944:	f9b7 3006 	ldrsh.w	r3, [r7, #6]
 8000948:	2b00      	cmp	r3, #0
 800094a:	d103      	bne.n	8000954 <MX_RGB_Red+0x2c>
		LL_GPIO_ResetOutputPin(GPIOB,LED_R_Pin);
 800094c:	2110      	movs	r1, #16
 800094e:	4803      	ldr	r0, [pc, #12]	; (800095c <MX_RGB_Red+0x34>)
 8000950:	f7ff fee9 	bl	8000726 <LL_GPIO_ResetOutputPin>
}
 8000954:	bf00      	nop
 8000956:	3708      	adds	r7, #8
 8000958:	46bd      	mov	sp, r7
 800095a:	bd80      	pop	{r7, pc}
 800095c:	48000400 	.word	0x48000400

08000960 <MX_RGB_Green>:
void MX_RGB_Green(short v){
 8000960:	b580      	push	{r7, lr}
 8000962:	b082      	sub	sp, #8
 8000964:	af00      	add	r7, sp, #0
 8000966:	4603      	mov	r3, r0
 8000968:	80fb      	strh	r3, [r7, #6]
	/* Activacion o desactivacion led G */
	if (v == 1)
 800096a:	f9b7 3006 	ldrsh.w	r3, [r7, #6]
 800096e:	2b01      	cmp	r3, #1
 8000970:	d104      	bne.n	800097c <MX_RGB_Green+0x1c>
		LL_GPIO_SetOutputPin(GPIOC,LED_G_Pin);
 8000972:	2180      	movs	r1, #128	; 0x80
 8000974:	4807      	ldr	r0, [pc, #28]	; (8000994 <MX_RGB_Green+0x34>)
 8000976:	f7ff fec8 	bl	800070a <LL_GPIO_SetOutputPin>
	else if (v == 0)
		LL_GPIO_ResetOutputPin(GPIOC,LED_G_Pin);
}
 800097a:	e007      	b.n	800098c <MX_RGB_Green+0x2c>
	else if (v == 0)
 800097c:	f9b7 3006 	ldrsh.w	r3, [r7, #6]
 8000980:	2b00      	cmp	r3, #0
 8000982:	d103      	bne.n	800098c <MX_RGB_Green+0x2c>
		LL_GPIO_ResetOutputPin(GPIOC,LED_G_Pin);
 8000984:	2180      	movs	r1, #128	; 0x80
 8000986:	4803      	ldr	r0, [pc, #12]	; (8000994 <MX_RGB_Green+0x34>)
 8000988:	f7ff fecd 	bl	8000726 <LL_GPIO_ResetOutputPin>
}
 800098c:	bf00      	nop
 800098e:	3708      	adds	r7, #8
 8000990:	46bd      	mov	sp, r7
 8000992:	bd80      	pop	{r7, pc}
 8000994:	48000800 	.word	0x48000800

08000998 <MX_RGB_Blue>:
void MX_RGB_Blue(short v){
 8000998:	b580      	push	{r7, lr}
 800099a:	b082      	sub	sp, #8
 800099c:	af00      	add	r7, sp, #0
 800099e:	4603      	mov	r3, r0
 80009a0:	80fb      	strh	r3, [r7, #6]
	/* Activacion o desactivacion led B */
	if (v == 1)
 80009a2:	f9b7 3006 	ldrsh.w	r3, [r7, #6]
 80009a6:	2b01      	cmp	r3, #1
 80009a8:	d106      	bne.n	80009b8 <MX_RGB_Blue+0x20>
		LL_GPIO_SetOutputPin(GPIOA,LED_B_Pin);
 80009aa:	f44f 7100 	mov.w	r1, #512	; 0x200
 80009ae:	f04f 4090 	mov.w	r0, #1207959552	; 0x48000000
 80009b2:	f7ff feaa 	bl	800070a <LL_GPIO_SetOutputPin>
	else if (v == 0)
		LL_GPIO_ResetOutputPin(GPIOA,LED_B_Pin);
}
 80009b6:	e009      	b.n	80009cc <MX_RGB_Blue+0x34>
	else if (v == 0)
 80009b8:	f9b7 3006 	ldrsh.w	r3, [r7, #6]
 80009bc:	2b00      	cmp	r3, #0
 80009be:	d105      	bne.n	80009cc <MX_RGB_Blue+0x34>
		LL_GPIO_ResetOutputPin(GPIOA,LED_B_Pin);
 80009c0:	f44f 7100 	mov.w	r1, #512	; 0x200
 80009c4:	f04f 4090 	mov.w	r0, #1207959552	; 0x48000000
 80009c8:	f7ff fead 	bl	8000726 <LL_GPIO_ResetOutputPin>
}
 80009cc:	bf00      	nop
 80009ce:	3708      	adds	r7, #8
 80009d0:	46bd      	mov	sp, r7
 80009d2:	bd80      	pop	{r7, pc}

080009d4 <LL_I2C_EnableClockStretching>:
  * @rmtoll CR1          NOSTRETCH     LL_I2C_EnableClockStretching
  * @param  I2Cx I2C Instance.
  * @retval None
  */
__STATIC_INLINE void LL_I2C_EnableClockStretching(I2C_TypeDef *I2Cx)
{
 80009d4:	b480      	push	{r7}
 80009d6:	b083      	sub	sp, #12
 80009d8:	af00      	add	r7, sp, #0
 80009da:	6078      	str	r0, [r7, #4]
  CLEAR_BIT(I2Cx->CR1, I2C_CR1_NOSTRETCH);
 80009dc:	687b      	ldr	r3, [r7, #4]
 80009de:	681b      	ldr	r3, [r3, #0]
 80009e0:	f423 3200 	bic.w	r2, r3, #131072	; 0x20000
 80009e4:	687b      	ldr	r3, [r7, #4]
 80009e6:	601a      	str	r2, [r3, #0]
}
 80009e8:	bf00      	nop
 80009ea:	370c      	adds	r7, #12
 80009ec:	46bd      	mov	sp, r7
 80009ee:	f85d 7b04 	ldr.w	r7, [sp], #4
 80009f2:	4770      	bx	lr

080009f4 <LL_I2C_DisableGeneralCall>:
  * @rmtoll CR1          GCEN          LL_I2C_DisableGeneralCall
  * @param  I2Cx I2C Instance.
  * @retval None
  */
__STATIC_INLINE void LL_I2C_DisableGeneralCall(I2C_TypeDef *I2Cx)
{
 80009f4:	b480      	push	{r7}
 80009f6:	b083      	sub	sp, #12
 80009f8:	af00      	add	r7, sp, #0
 80009fa:	6078      	str	r0, [r7, #4]
  CLEAR_BIT(I2Cx->CR1, I2C_CR1_GCEN);
 80009fc:	687b      	ldr	r3, [r7, #4]
 80009fe:	681b      	ldr	r3, [r3, #0]
 8000a00:	f423 2200 	bic.w	r2, r3, #524288	; 0x80000
 8000a04:	687b      	ldr	r3, [r7, #4]
 8000a06:	601a      	str	r2, [r3, #0]
}
 8000a08:	bf00      	nop
 8000a0a:	370c      	adds	r7, #12
 8000a0c:	46bd      	mov	sp, r7
 8000a0e:	f85d 7b04 	ldr.w	r7, [sp], #4
 8000a12:	4770      	bx	lr

08000a14 <LL_I2C_SetMasterAddressingMode>:
  *         @arg @ref LL_I2C_ADDRESSING_MODE_7BIT
  *         @arg @ref LL_I2C_ADDRESSING_MODE_10BIT
  * @retval None
  */
__STATIC_INLINE void LL_I2C_SetMasterAddressingMode(I2C_TypeDef *I2Cx, uint32_t AddressingMode)
{
 8000a14:	b480      	push	{r7}
 8000a16:	b083      	sub	sp, #12
 8000a18:	af00      	add	r7, sp, #0
 8000a1a:	6078      	str	r0, [r7, #4]
 8000a1c:	6039      	str	r1, [r7, #0]
  MODIFY_REG(I2Cx->CR2, I2C_CR2_ADD10, AddressingMode);
 8000a1e:	687b      	ldr	r3, [r7, #4]
 8000a20:	685b      	ldr	r3, [r3, #4]
 8000a22:	f423 6200 	bic.w	r2, r3, #2048	; 0x800
 8000a26:	683b      	ldr	r3, [r7, #0]
 8000a28:	431a      	orrs	r2, r3
 8000a2a:	687b      	ldr	r3, [r7, #4]
 8000a2c:	605a      	str	r2, [r3, #4]
}
 8000a2e:	bf00      	nop
 8000a30:	370c      	adds	r7, #12
 8000a32:	46bd      	mov	sp, r7
 8000a34:	f85d 7b04 	ldr.w	r7, [sp], #4
 8000a38:	4770      	bx	lr

08000a3a <LL_I2C_SetOwnAddress2>:
  *         @arg @ref LL_I2C_OWNADDRESS2_MASK06
  *         @arg @ref LL_I2C_OWNADDRESS2_MASK07
  * @retval None
  */
__STATIC_INLINE void LL_I2C_SetOwnAddress2(I2C_TypeDef *I2Cx, uint32_t OwnAddress2, uint32_t OwnAddrMask)
{
 8000a3a:	b480      	push	{r7}
 8000a3c:	b085      	sub	sp, #20
 8000a3e:	af00      	add	r7, sp, #0
 8000a40:	60f8      	str	r0, [r7, #12]
 8000a42:	60b9      	str	r1, [r7, #8]
 8000a44:	607a      	str	r2, [r7, #4]
  MODIFY_REG(I2Cx->OAR2, I2C_OAR2_OA2 | I2C_OAR2_OA2MSK, OwnAddress2 | OwnAddrMask);
 8000a46:	68fb      	ldr	r3, [r7, #12]
 8000a48:	68db      	ldr	r3, [r3, #12]
 8000a4a:	f423 63ff 	bic.w	r3, r3, #2040	; 0x7f8
 8000a4e:	f023 0306 	bic.w	r3, r3, #6
 8000a52:	68b9      	ldr	r1, [r7, #8]
 8000a54:	687a      	ldr	r2, [r7, #4]
 8000a56:	430a      	orrs	r2, r1
 8000a58:	431a      	orrs	r2, r3
 8000a5a:	68fb      	ldr	r3, [r7, #12]
 8000a5c:	60da      	str	r2, [r3, #12]
}
 8000a5e:	bf00      	nop
 8000a60:	3714      	adds	r7, #20
 8000a62:	46bd      	mov	sp, r7
 8000a64:	f85d 7b04 	ldr.w	r7, [sp], #4
 8000a68:	4770      	bx	lr

08000a6a <LL_I2C_DisableOwnAddress2>:
  * @rmtoll OAR2         OA2EN         LL_I2C_DisableOwnAddress2
  * @param  I2Cx I2C Instance.
  * @retval None
  */
__STATIC_INLINE void LL_I2C_DisableOwnAddress2(I2C_TypeDef *I2Cx)
{
 8000a6a:	b480      	push	{r7}
 8000a6c:	b083      	sub	sp, #12
 8000a6e:	af00      	add	r7, sp, #0
 8000a70:	6078      	str	r0, [r7, #4]
  CLEAR_BIT(I2Cx->OAR2, I2C_OAR2_OA2EN);
 8000a72:	687b      	ldr	r3, [r7, #4]
 8000a74:	68db      	ldr	r3, [r3, #12]
 8000a76:	f423 4200 	bic.w	r2, r3, #32768	; 0x8000
 8000a7a:	687b      	ldr	r3, [r7, #4]
 8000a7c:	60da      	str	r2, [r3, #12]
}
 8000a7e:	bf00      	nop
 8000a80:	370c      	adds	r7, #12
 8000a82:	46bd      	mov	sp, r7
 8000a84:	f85d 7b04 	ldr.w	r7, [sp], #4
 8000a88:	4770      	bx	lr

08000a8a <LL_I2C_IsActiveFlag_TXIS>:
  * @rmtoll ISR          TXIS          LL_I2C_IsActiveFlag_TXIS
  * @param  I2Cx I2C Instance.
  * @retval State of bit (1 or 0).
  */
__STATIC_INLINE uint32_t LL_I2C_IsActiveFlag_TXIS(I2C_TypeDef *I2Cx)
{
 8000a8a:	b480      	push	{r7}
 8000a8c:	b083      	sub	sp, #12
 8000a8e:	af00      	add	r7, sp, #0
 8000a90:	6078      	str	r0, [r7, #4]
  return ((READ_BIT(I2Cx->ISR, I2C_ISR_TXIS) == (I2C_ISR_TXIS)) ? 1UL : 0UL);
 8000a92:	687b      	ldr	r3, [r7, #4]
 8000a94:	699b      	ldr	r3, [r3, #24]
 8000a96:	f003 0302 	and.w	r3, r3, #2
 8000a9a:	2b02      	cmp	r3, #2
 8000a9c:	d101      	bne.n	8000aa2 <LL_I2C_IsActiveFlag_TXIS+0x18>
 8000a9e:	2301      	movs	r3, #1
 8000aa0:	e000      	b.n	8000aa4 <LL_I2C_IsActiveFlag_TXIS+0x1a>
 8000aa2:	2300      	movs	r3, #0
}
 8000aa4:	4618      	mov	r0, r3
 8000aa6:	370c      	adds	r7, #12
 8000aa8:	46bd      	mov	sp, r7
 8000aaa:	f85d 7b04 	ldr.w	r7, [sp], #4
 8000aae:	4770      	bx	lr

08000ab0 <LL_I2C_IsActiveFlag_RXNE>:
  * @rmtoll ISR          RXNE          LL_I2C_IsActiveFlag_RXNE
  * @param  I2Cx I2C Instance.
  * @retval State of bit (1 or 0).
  */
__STATIC_INLINE uint32_t LL_I2C_IsActiveFlag_RXNE(I2C_TypeDef *I2Cx)
{
 8000ab0:	b480      	push	{r7}
 8000ab2:	b083      	sub	sp, #12
 8000ab4:	af00      	add	r7, sp, #0
 8000ab6:	6078      	str	r0, [r7, #4]
  return ((READ_BIT(I2Cx->ISR, I2C_ISR_RXNE) == (I2C_ISR_RXNE)) ? 1UL : 0UL);
 8000ab8:	687b      	ldr	r3, [r7, #4]
 8000aba:	699b      	ldr	r3, [r3, #24]
 8000abc:	f003 0304 	and.w	r3, r3, #4
 8000ac0:	2b04      	cmp	r3, #4
 8000ac2:	d101      	bne.n	8000ac8 <LL_I2C_IsActiveFlag_RXNE+0x18>
 8000ac4:	2301      	movs	r3, #1
 8000ac6:	e000      	b.n	8000aca <LL_I2C_IsActiveFlag_RXNE+0x1a>
 8000ac8:	2300      	movs	r3, #0
}
 8000aca:	4618      	mov	r0, r3
 8000acc:	370c      	adds	r7, #12
 8000ace:	46bd      	mov	sp, r7
 8000ad0:	f85d 7b04 	ldr.w	r7, [sp], #4
 8000ad4:	4770      	bx	lr

08000ad6 <LL_I2C_IsActiveFlag_STOP>:
  * @rmtoll ISR          STOPF         LL_I2C_IsActiveFlag_STOP
  * @param  I2Cx I2C Instance.
  * @retval State of bit (1 or 0).
  */
__STATIC_INLINE uint32_t LL_I2C_IsActiveFlag_STOP(I2C_TypeDef *I2Cx)
{
 8000ad6:	b480      	push	{r7}
 8000ad8:	b083      	sub	sp, #12
 8000ada:	af00      	add	r7, sp, #0
 8000adc:	6078      	str	r0, [r7, #4]
  return ((READ_BIT(I2Cx->ISR, I2C_ISR_STOPF) == (I2C_ISR_STOPF)) ? 1UL : 0UL);
 8000ade:	687b      	ldr	r3, [r7, #4]
 8000ae0:	699b      	ldr	r3, [r3, #24]
 8000ae2:	f003 0320 	and.w	r3, r3, #32
 8000ae6:	2b20      	cmp	r3, #32
 8000ae8:	d101      	bne.n	8000aee <LL_I2C_IsActiveFlag_STOP+0x18>
 8000aea:	2301      	movs	r3, #1
 8000aec:	e000      	b.n	8000af0 <LL_I2C_IsActiveFlag_STOP+0x1a>
 8000aee:	2300      	movs	r3, #0
}
 8000af0:	4618      	mov	r0, r3
 8000af2:	370c      	adds	r7, #12
 8000af4:	46bd      	mov	sp, r7
 8000af6:	f85d 7b04 	ldr.w	r7, [sp], #4
 8000afa:	4770      	bx	lr

08000afc <LL_I2C_ClearFlag_STOP>:
  * @rmtoll ICR          STOPCF        LL_I2C_ClearFlag_STOP
  * @param  I2Cx I2C Instance.
  * @retval None
  */
__STATIC_INLINE void LL_I2C_ClearFlag_STOP(I2C_TypeDef *I2Cx)
{
 8000afc:	b480      	push	{r7}
 8000afe:	b083      	sub	sp, #12
 8000b00:	af00      	add	r7, sp, #0
 8000b02:	6078      	str	r0, [r7, #4]
  SET_BIT(I2Cx->ICR, I2C_ICR_STOPCF);
 8000b04:	687b      	ldr	r3, [r7, #4]
 8000b06:	69db      	ldr	r3, [r3, #28]
 8000b08:	f043 0220 	orr.w	r2, r3, #32
 8000b0c:	687b      	ldr	r3, [r7, #4]
 8000b0e:	61da      	str	r2, [r3, #28]
}
 8000b10:	bf00      	nop
 8000b12:	370c      	adds	r7, #12
 8000b14:	46bd      	mov	sp, r7
 8000b16:	f85d 7b04 	ldr.w	r7, [sp], #4
 8000b1a:	4770      	bx	lr

08000b1c <LL_I2C_EnableAutoEndMode>:
  * @rmtoll CR2          AUTOEND       LL_I2C_EnableAutoEndMode
  * @param  I2Cx I2C Instance.
  * @retval None
  */
__STATIC_INLINE void LL_I2C_EnableAutoEndMode(I2C_TypeDef *I2Cx)
{
 8000b1c:	b480      	push	{r7}
 8000b1e:	b083      	sub	sp, #12
 8000b20:	af00      	add	r7, sp, #0
 8000b22:	6078      	str	r0, [r7, #4]
  SET_BIT(I2Cx->CR2, I2C_CR2_AUTOEND);
 8000b24:	687b      	ldr	r3, [r7, #4]
 8000b26:	685b      	ldr	r3, [r3, #4]
 8000b28:	f043 7200 	orr.w	r2, r3, #33554432	; 0x2000000
 8000b2c:	687b      	ldr	r3, [r7, #4]
 8000b2e:	605a      	str	r2, [r3, #4]
}
 8000b30:	bf00      	nop
 8000b32:	370c      	adds	r7, #12
 8000b34:	46bd      	mov	sp, r7
 8000b36:	f85d 7b04 	ldr.w	r7, [sp], #4
 8000b3a:	4770      	bx	lr

08000b3c <LL_I2C_SetTransferSize>:
  * @param  I2Cx I2C Instance.
  * @param  TransferSize This parameter must be a value between Min_Data=0x00 and Max_Data=0xFF.
  * @retval None
  */
__STATIC_INLINE void LL_I2C_SetTransferSize(I2C_TypeDef *I2Cx, uint32_t TransferSize)
{
 8000b3c:	b480      	push	{r7}
 8000b3e:	b083      	sub	sp, #12
 8000b40:	af00      	add	r7, sp, #0
 8000b42:	6078      	str	r0, [r7, #4]
 8000b44:	6039      	str	r1, [r7, #0]
  MODIFY_REG(I2Cx->CR2, I2C_CR2_NBYTES, TransferSize << I2C_CR2_NBYTES_Pos);
 8000b46:	687b      	ldr	r3, [r7, #4]
 8000b48:	685b      	ldr	r3, [r3, #4]
 8000b4a:	f423 027f 	bic.w	r2, r3, #16711680	; 0xff0000
 8000b4e:	683b      	ldr	r3, [r7, #0]
 8000b50:	041b      	lsls	r3, r3, #16
 8000b52:	431a      	orrs	r2, r3
 8000b54:	687b      	ldr	r3, [r7, #4]
 8000b56:	605a      	str	r2, [r3, #4]
}
 8000b58:	bf00      	nop
 8000b5a:	370c      	adds	r7, #12
 8000b5c:	46bd      	mov	sp, r7
 8000b5e:	f85d 7b04 	ldr.w	r7, [sp], #4
 8000b62:	4770      	bx	lr

08000b64 <LL_I2C_GenerateStartCondition>:
  * @rmtoll CR2          START           LL_I2C_GenerateStartCondition
  * @param  I2Cx I2C Instance.
  * @retval None
  */
__STATIC_INLINE void LL_I2C_GenerateStartCondition(I2C_TypeDef *I2Cx)
{
 8000b64:	b480      	push	{r7}
 8000b66:	b083      	sub	sp, #12
 8000b68:	af00      	add	r7, sp, #0
 8000b6a:	6078      	str	r0, [r7, #4]
  SET_BIT(I2Cx->CR2, I2C_CR2_START);
 8000b6c:	687b      	ldr	r3, [r7, #4]
 8000b6e:	685b      	ldr	r3, [r3, #4]
 8000b70:	f443 5200 	orr.w	r2, r3, #8192	; 0x2000
 8000b74:	687b      	ldr	r3, [r7, #4]
 8000b76:	605a      	str	r2, [r3, #4]
}
 8000b78:	bf00      	nop
 8000b7a:	370c      	adds	r7, #12
 8000b7c:	46bd      	mov	sp, r7
 8000b7e:	f85d 7b04 	ldr.w	r7, [sp], #4
 8000b82:	4770      	bx	lr

08000b84 <LL_I2C_SetTransferRequest>:
  *         @arg @ref LL_I2C_REQUEST_WRITE
  *         @arg @ref LL_I2C_REQUEST_READ
  * @retval None
  */
__STATIC_INLINE void LL_I2C_SetTransferRequest(I2C_TypeDef *I2Cx, uint32_t TransferRequest)
{
 8000b84:	b480      	push	{r7}
 8000b86:	b083      	sub	sp, #12
 8000b88:	af00      	add	r7, sp, #0
 8000b8a:	6078      	str	r0, [r7, #4]
 8000b8c:	6039      	str	r1, [r7, #0]
  MODIFY_REG(I2Cx->CR2, I2C_CR2_RD_WRN, TransferRequest);
 8000b8e:	687b      	ldr	r3, [r7, #4]
 8000b90:	685b      	ldr	r3, [r3, #4]
 8000b92:	f423 6280 	bic.w	r2, r3, #1024	; 0x400
 8000b96:	683b      	ldr	r3, [r7, #0]
 8000b98:	431a      	orrs	r2, r3
 8000b9a:	687b      	ldr	r3, [r7, #4]
 8000b9c:	605a      	str	r2, [r3, #4]
}
 8000b9e:	bf00      	nop
 8000ba0:	370c      	adds	r7, #12
 8000ba2:	46bd      	mov	sp, r7
 8000ba4:	f85d 7b04 	ldr.w	r7, [sp], #4
 8000ba8:	4770      	bx	lr

08000baa <LL_I2C_SetSlaveAddr>:
  * @param  I2Cx I2C Instance.
  * @param  SlaveAddr This parameter must be a value between Min_Data=0x00 and Max_Data=0x3F.
  * @retval None
  */
__STATIC_INLINE void LL_I2C_SetSlaveAddr(I2C_TypeDef *I2Cx, uint32_t SlaveAddr)
{
 8000baa:	b480      	push	{r7}
 8000bac:	b083      	sub	sp, #12
 8000bae:	af00      	add	r7, sp, #0
 8000bb0:	6078      	str	r0, [r7, #4]
 8000bb2:	6039      	str	r1, [r7, #0]
  MODIFY_REG(I2Cx->CR2, I2C_CR2_SADD, SlaveAddr);
 8000bb4:	687b      	ldr	r3, [r7, #4]
 8000bb6:	685b      	ldr	r3, [r3, #4]
 8000bb8:	f423 737f 	bic.w	r3, r3, #1020	; 0x3fc
 8000bbc:	f023 0303 	bic.w	r3, r3, #3
 8000bc0:	683a      	ldr	r2, [r7, #0]
 8000bc2:	431a      	orrs	r2, r3
 8000bc4:	687b      	ldr	r3, [r7, #4]
 8000bc6:	605a      	str	r2, [r3, #4]
}
 8000bc8:	bf00      	nop
 8000bca:	370c      	adds	r7, #12
 8000bcc:	46bd      	mov	sp, r7
 8000bce:	f85d 7b04 	ldr.w	r7, [sp], #4
 8000bd2:	4770      	bx	lr

08000bd4 <LL_I2C_ReceiveData8>:
  * @rmtoll RXDR         RXDATA        LL_I2C_ReceiveData8
  * @param  I2Cx I2C Instance.
  * @retval Value between Min_Data=0x00 and Max_Data=0xFF
  */
__STATIC_INLINE uint8_t LL_I2C_ReceiveData8(I2C_TypeDef *I2Cx)
{
 8000bd4:	b480      	push	{r7}
 8000bd6:	b083      	sub	sp, #12
 8000bd8:	af00      	add	r7, sp, #0
 8000bda:	6078      	str	r0, [r7, #4]
  return (uint8_t)(READ_BIT(I2Cx->RXDR, I2C_RXDR_RXDATA));
 8000bdc:	687b      	ldr	r3, [r7, #4]
 8000bde:	6a5b      	ldr	r3, [r3, #36]	; 0x24
 8000be0:	b2db      	uxtb	r3, r3
}
 8000be2:	4618      	mov	r0, r3
 8000be4:	370c      	adds	r7, #12
 8000be6:	46bd      	mov	sp, r7
 8000be8:	f85d 7b04 	ldr.w	r7, [sp], #4
 8000bec:	4770      	bx	lr

08000bee <LL_I2C_TransmitData8>:
  * @param  I2Cx I2C Instance.
  * @param  Data Value between Min_Data=0x00 and Max_Data=0xFF
  * @retval None
  */
__STATIC_INLINE void LL_I2C_TransmitData8(I2C_TypeDef *I2Cx, uint8_t Data)
{
 8000bee:	b480      	push	{r7}
 8000bf0:	b083      	sub	sp, #12
 8000bf2:	af00      	add	r7, sp, #0
 8000bf4:	6078      	str	r0, [r7, #4]
 8000bf6:	460b      	mov	r3, r1
 8000bf8:	70fb      	strb	r3, [r7, #3]
  WRITE_REG(I2Cx->TXDR, Data);
 8000bfa:	78fa      	ldrb	r2, [r7, #3]
 8000bfc:	687b      	ldr	r3, [r7, #4]
 8000bfe:	629a      	str	r2, [r3, #40]	; 0x28
}
 8000c00:	bf00      	nop
 8000c02:	370c      	adds	r7, #12
 8000c04:	46bd      	mov	sp, r7
 8000c06:	f85d 7b04 	ldr.w	r7, [sp], #4
 8000c0a:	4770      	bx	lr

08000c0c <LL_AHB1_GRP1_EnableClock>:
{
 8000c0c:	b480      	push	{r7}
 8000c0e:	b085      	sub	sp, #20
 8000c10:	af00      	add	r7, sp, #0
 8000c12:	6078      	str	r0, [r7, #4]
  SET_BIT(RCC->AHBENR, Periphs);
 8000c14:	4908      	ldr	r1, [pc, #32]	; (8000c38 <LL_AHB1_GRP1_EnableClock+0x2c>)
 8000c16:	4b08      	ldr	r3, [pc, #32]	; (8000c38 <LL_AHB1_GRP1_EnableClock+0x2c>)
 8000c18:	695a      	ldr	r2, [r3, #20]
 8000c1a:	687b      	ldr	r3, [r7, #4]
 8000c1c:	4313      	orrs	r3, r2
 8000c1e:	614b      	str	r3, [r1, #20]
  tmpreg = READ_BIT(RCC->AHBENR, Periphs);
 8000c20:	4b05      	ldr	r3, [pc, #20]	; (8000c38 <LL_AHB1_GRP1_EnableClock+0x2c>)
 8000c22:	695a      	ldr	r2, [r3, #20]
 8000c24:	687b      	ldr	r3, [r7, #4]
 8000c26:	4013      	ands	r3, r2
 8000c28:	60fb      	str	r3, [r7, #12]
  (void)tmpreg;
 8000c2a:	68fb      	ldr	r3, [r7, #12]
}
 8000c2c:	bf00      	nop
 8000c2e:	3714      	adds	r7, #20
 8000c30:	46bd      	mov	sp, r7
 8000c32:	f85d 7b04 	ldr.w	r7, [sp], #4
 8000c36:	4770      	bx	lr
 8000c38:	40021000 	.word	0x40021000

08000c3c <LL_APB1_GRP1_EnableClock>:
  *
  *         (*) value not defined in all devices.
  * @retval None
*/
__STATIC_INLINE void LL_APB1_GRP1_EnableClock(uint32_t Periphs)
{
 8000c3c:	b480      	push	{r7}
 8000c3e:	b085      	sub	sp, #20
 8000c40:	af00      	add	r7, sp, #0
 8000c42:	6078      	str	r0, [r7, #4]
  __IO uint32_t tmpreg;
  SET_BIT(RCC->APB1ENR, Periphs);
 8000c44:	4908      	ldr	r1, [pc, #32]	; (8000c68 <LL_APB1_GRP1_EnableClock+0x2c>)
 8000c46:	4b08      	ldr	r3, [pc, #32]	; (8000c68 <LL_APB1_GRP1_EnableClock+0x2c>)
 8000c48:	69da      	ldr	r2, [r3, #28]
 8000c4a:	687b      	ldr	r3, [r7, #4]
 8000c4c:	4313      	orrs	r3, r2
 8000c4e:	61cb      	str	r3, [r1, #28]
  /* Delay after an RCC peripheral clock enabling */
  tmpreg = READ_BIT(RCC->APB1ENR, Periphs);
 8000c50:	4b05      	ldr	r3, [pc, #20]	; (8000c68 <LL_APB1_GRP1_EnableClock+0x2c>)
 8000c52:	69da      	ldr	r2, [r3, #28]
 8000c54:	687b      	ldr	r3, [r7, #4]
 8000c56:	4013      	ands	r3, r2
 8000c58:	60fb      	str	r3, [r7, #12]
  (void)tmpreg;
 8000c5a:	68fb      	ldr	r3, [r7, #12]
}
 8000c5c:	bf00      	nop
 8000c5e:	3714      	adds	r7, #20
 8000c60:	46bd      	mov	sp, r7
 8000c62:	f85d 7b04 	ldr.w	r7, [sp], #4
 8000c66:	4770      	bx	lr
 8000c68:	40021000 	.word	0x40021000

08000c6c <MX_I2C1_Init>:

/* USER CODE END 0 */

/* I2C1 init function */
void MX_I2C1_Init(void)
{
 8000c6c:	b580      	push	{r7, lr}
 8000c6e:	b08e      	sub	sp, #56	; 0x38
 8000c70:	af00      	add	r7, sp, #0

  /* USER CODE BEGIN I2C1_Init 0 */

  /* USER CODE END I2C1_Init 0 */

  LL_I2C_InitTypeDef I2C_InitStruct = {0};
 8000c72:	f107 031c 	add.w	r3, r7, #28
 8000c76:	2200      	movs	r2, #0
 8000c78:	601a      	str	r2, [r3, #0]
 8000c7a:	605a      	str	r2, [r3, #4]
 8000c7c:	609a      	str	r2, [r3, #8]
 8000c7e:	60da      	str	r2, [r3, #12]
 8000c80:	611a      	str	r2, [r3, #16]
 8000c82:	615a      	str	r2, [r3, #20]
 8000c84:	619a      	str	r2, [r3, #24]

  LL_GPIO_InitTypeDef GPIO_InitStruct = {0};
 8000c86:	1d3b      	adds	r3, r7, #4
 8000c88:	2200      	movs	r2, #0
 8000c8a:	601a      	str	r2, [r3, #0]
 8000c8c:	605a      	str	r2, [r3, #4]
 8000c8e:	609a      	str	r2, [r3, #8]
 8000c90:	60da      	str	r2, [r3, #12]
 8000c92:	611a      	str	r2, [r3, #16]
 8000c94:	615a      	str	r2, [r3, #20]

  LL_AHB1_GRP1_EnableClock(LL_AHB1_GRP1_PERIPH_GPIOB);
 8000c96:	f44f 2080 	mov.w	r0, #262144	; 0x40000
 8000c9a:	f7ff ffb7 	bl	8000c0c <LL_AHB1_GRP1_EnableClock>
  /**I2C1 GPIO Configuration
  PB8   ------> I2C1_SCL
  PB9   ------> I2C1_SDA
  */
  GPIO_InitStruct.Pin = LL_GPIO_PIN_8|LL_GPIO_PIN_9;
 8000c9e:	f44f 7340 	mov.w	r3, #768	; 0x300
 8000ca2:	607b      	str	r3, [r7, #4]
  GPIO_InitStruct.Mode = LL_GPIO_MODE_ALTERNATE;
 8000ca4:	2302      	movs	r3, #2
 8000ca6:	60bb      	str	r3, [r7, #8]
  GPIO_InitStruct.Speed = LL_GPIO_SPEED_FREQ_HIGH;
 8000ca8:	2303      	movs	r3, #3
 8000caa:	60fb      	str	r3, [r7, #12]
  GPIO_InitStruct.OutputType = LL_GPIO_OUTPUT_OPENDRAIN;
 8000cac:	2301      	movs	r3, #1
 8000cae:	613b      	str	r3, [r7, #16]
  GPIO_InitStruct.Pull = LL_GPIO_PULL_NO;
 8000cb0:	2300      	movs	r3, #0
 8000cb2:	617b      	str	r3, [r7, #20]
  GPIO_InitStruct.Alternate = LL_GPIO_AF_4;
 8000cb4:	2304      	movs	r3, #4
 8000cb6:	61bb      	str	r3, [r7, #24]
  LL_GPIO_Init(GPIOB, &GPIO_InitStruct);
 8000cb8:	1d3b      	adds	r3, r7, #4
 8000cba:	4619      	mov	r1, r3
 8000cbc:	481a      	ldr	r0, [pc, #104]	; (8000d28 <MX_I2C1_Init+0xbc>)
 8000cbe:	f002 fafa 	bl	80032b6 <LL_GPIO_Init>

  /* Peripheral clock enable */
  LL_APB1_GRP1_EnableClock(LL_APB1_GRP1_PERIPH_I2C1);
 8000cc2:	f44f 1000 	mov.w	r0, #2097152	; 0x200000
 8000cc6:	f7ff ffb9 	bl	8000c3c <LL_APB1_GRP1_EnableClock>
  /* USER CODE BEGIN I2C1_Init 1 */

  /* USER CODE END I2C1_Init 1 */
  /** I2C Initialization
  */
  LL_I2C_EnableAutoEndMode(I2C1);
 8000cca:	4818      	ldr	r0, [pc, #96]	; (8000d2c <MX_I2C1_Init+0xc0>)
 8000ccc:	f7ff ff26 	bl	8000b1c <LL_I2C_EnableAutoEndMode>
  LL_I2C_DisableOwnAddress2(I2C1);
 8000cd0:	4816      	ldr	r0, [pc, #88]	; (8000d2c <MX_I2C1_Init+0xc0>)
 8000cd2:	f7ff feca 	bl	8000a6a <LL_I2C_DisableOwnAddress2>
  LL_I2C_DisableGeneralCall(I2C1);
 8000cd6:	4815      	ldr	r0, [pc, #84]	; (8000d2c <MX_I2C1_Init+0xc0>)
 8000cd8:	f7ff fe8c 	bl	80009f4 <LL_I2C_DisableGeneralCall>
  LL_I2C_EnableClockStretching(I2C1);
 8000cdc:	4813      	ldr	r0, [pc, #76]	; (8000d2c <MX_I2C1_Init+0xc0>)
 8000cde:	f7ff fe79 	bl	80009d4 <LL_I2C_EnableClockStretching>
  I2C_InitStruct.PeripheralMode = LL_I2C_MODE_I2C;
 8000ce2:	2300      	movs	r3, #0
 8000ce4:	61fb      	str	r3, [r7, #28]
  I2C_InitStruct.Timing = 0x00101D7C;
 8000ce6:	4b12      	ldr	r3, [pc, #72]	; (8000d30 <MX_I2C1_Init+0xc4>)
 8000ce8:	623b      	str	r3, [r7, #32]
  I2C_InitStruct.AnalogFilter = LL_I2C_ANALOGFILTER_ENABLE;
 8000cea:	2300      	movs	r3, #0
 8000cec:	627b      	str	r3, [r7, #36]	; 0x24
  I2C_InitStruct.DigitalFilter = 0;
 8000cee:	2300      	movs	r3, #0
 8000cf0:	62bb      	str	r3, [r7, #40]	; 0x28
  I2C_InitStruct.OwnAddress1 = 0;
 8000cf2:	2300      	movs	r3, #0
 8000cf4:	62fb      	str	r3, [r7, #44]	; 0x2c
  I2C_InitStruct.TypeAcknowledge = LL_I2C_ACK;
 8000cf6:	2300      	movs	r3, #0
 8000cf8:	633b      	str	r3, [r7, #48]	; 0x30
  I2C_InitStruct.OwnAddrSize = LL_I2C_OWNADDRESS1_10BIT;
 8000cfa:	f44f 6380 	mov.w	r3, #1024	; 0x400
 8000cfe:	637b      	str	r3, [r7, #52]	; 0x34
  LL_I2C_Init(I2C1, &I2C_InitStruct);
 8000d00:	f107 031c 	add.w	r3, r7, #28
 8000d04:	4619      	mov	r1, r3
 8000d06:	4809      	ldr	r0, [pc, #36]	; (8000d2c <MX_I2C1_Init+0xc0>)
 8000d08:	f002 fbe8 	bl	80034dc <LL_I2C_Init>
  LL_I2C_SetOwnAddress2(I2C1, 0, LL_I2C_OWNADDRESS2_NOMASK);
 8000d0c:	2200      	movs	r2, #0
 8000d0e:	2100      	movs	r1, #0
 8000d10:	4806      	ldr	r0, [pc, #24]	; (8000d2c <MX_I2C1_Init+0xc0>)
 8000d12:	f7ff fe92 	bl	8000a3a <LL_I2C_SetOwnAddress2>
  LL_I2C_SetMasterAddressingMode(I2C1, LL_I2C_ADDRESSING_MODE_10BIT);
 8000d16:	f44f 6100 	mov.w	r1, #2048	; 0x800
 8000d1a:	4804      	ldr	r0, [pc, #16]	; (8000d2c <MX_I2C1_Init+0xc0>)
 8000d1c:	f7ff fe7a 	bl	8000a14 <LL_I2C_SetMasterAddressingMode>
  /* USER CODE BEGIN I2C1_Init 2 */

  /* USER CODE END I2C1_Init 2 */

}
 8000d20:	bf00      	nop
 8000d22:	3738      	adds	r7, #56	; 0x38
 8000d24:	46bd      	mov	sp, r7
 8000d26:	bd80      	pop	{r7, pc}
 8000d28:	48000400 	.word	0x48000400
 8000d2c:	40005400 	.word	0x40005400
 8000d30:	00101d7c 	.word	0x00101d7c

08000d34 <MX_I2C1_MasterInit>:

/* USER CODE BEGIN 1 */

void MX_I2C1_MasterInit(MX_I2C1_XferType transferType, uint8_t transferSize, uint16_t periph_addr)
{
 8000d34:	b580      	push	{r7, lr}
 8000d36:	b082      	sub	sp, #8
 8000d38:	af00      	add	r7, sp, #0
 8000d3a:	4603      	mov	r3, r0
 8000d3c:	71fb      	strb	r3, [r7, #7]
 8000d3e:	460b      	mov	r3, r1
 8000d40:	71bb      	strb	r3, [r7, #6]
 8000d42:	4613      	mov	r3, r2
 8000d44:	80bb      	strh	r3, [r7, #4]
	/*Define Addressing mode*/
	LL_I2C_SetMasterAddressingMode(I2C1, LL_I2C_ADDRESSING_MODE_7BIT);
 8000d46:	2100      	movs	r1, #0
 8000d48:	4810      	ldr	r0, [pc, #64]	; (8000d8c <MX_I2C1_MasterInit+0x58>)
 8000d4a:	f7ff fe63 	bl	8000a14 <LL_I2C_SetMasterAddressingMode>

	/*Define Slave Address*/
	LL_I2C_SetSlaveAddr(I2C1, periph_addr);
 8000d4e:	88bb      	ldrh	r3, [r7, #4]
 8000d50:	4619      	mov	r1, r3
 8000d52:	480e      	ldr	r0, [pc, #56]	; (8000d8c <MX_I2C1_MasterInit+0x58>)
 8000d54:	f7ff ff29 	bl	8000baa <LL_I2C_SetSlaveAddr>

	/*Define Transfer Type*/
	if(transferType == MX_I2C1_xferRead)
 8000d58:	79fb      	ldrb	r3, [r7, #7]
 8000d5a:	2b00      	cmp	r3, #0
 8000d5c:	d105      	bne.n	8000d6a <MX_I2C1_MasterInit+0x36>
	{
		LL_I2C_SetTransferRequest(I2C1, LL_I2C_REQUEST_READ);
 8000d5e:	f44f 6180 	mov.w	r1, #1024	; 0x400
 8000d62:	480a      	ldr	r0, [pc, #40]	; (8000d8c <MX_I2C1_MasterInit+0x58>)
 8000d64:	f7ff ff0e 	bl	8000b84 <LL_I2C_SetTransferRequest>
 8000d68:	e003      	b.n	8000d72 <MX_I2C1_MasterInit+0x3e>
	}
	else
	{
		LL_I2C_SetTransferRequest(I2C1, LL_I2C_REQUEST_WRITE);
 8000d6a:	2100      	movs	r1, #0
 8000d6c:	4807      	ldr	r0, [pc, #28]	; (8000d8c <MX_I2C1_MasterInit+0x58>)
 8000d6e:	f7ff ff09 	bl	8000b84 <LL_I2C_SetTransferRequest>
	}

	/*Define transfer size*/
	LL_I2C_SetTransferSize(I2C1, transferSize);
 8000d72:	79bb      	ldrb	r3, [r7, #6]
 8000d74:	4619      	mov	r1, r3
 8000d76:	4805      	ldr	r0, [pc, #20]	; (8000d8c <MX_I2C1_MasterInit+0x58>)
 8000d78:	f7ff fee0 	bl	8000b3c <LL_I2C_SetTransferSize>

	/*Enable Auto End Mode*/
	LL_I2C_EnableAutoEndMode(I2C1);
 8000d7c:	4803      	ldr	r0, [pc, #12]	; (8000d8c <MX_I2C1_MasterInit+0x58>)
 8000d7e:	f7ff fecd 	bl	8000b1c <LL_I2C_EnableAutoEndMode>

	return;
 8000d82:	bf00      	nop
}
 8000d84:	3708      	adds	r7, #8
 8000d86:	46bd      	mov	sp, r7
 8000d88:	bd80      	pop	{r7, pc}
 8000d8a:	bf00      	nop
 8000d8c:	40005400 	.word	0x40005400

08000d90 <MX_I2C_Read>:

void MX_I2C_Read (uint8_t transferSize, uint8_t *dataRx, uint16_t periph_addr)
{
 8000d90:	b590      	push	{r4, r7, lr}
 8000d92:	b085      	sub	sp, #20
 8000d94:	af00      	add	r7, sp, #0
 8000d96:	4603      	mov	r3, r0
 8000d98:	6039      	str	r1, [r7, #0]
 8000d9a:	71fb      	strb	r3, [r7, #7]
 8000d9c:	4613      	mov	r3, r2
 8000d9e:	80bb      	strh	r3, [r7, #4]
	/*Counter to read data*/
	uint8_t i = 0;
 8000da0:	2300      	movs	r3, #0
 8000da2:	73fb      	strb	r3, [r7, #15]

	/*Master Initialization*/
	MX_I2C1_MasterInit(MX_I2C1_xferRead, transferSize, periph_addr);
 8000da4:	88ba      	ldrh	r2, [r7, #4]
 8000da6:	79fb      	ldrb	r3, [r7, #7]
 8000da8:	4619      	mov	r1, r3
 8000daa:	2000      	movs	r0, #0
 8000dac:	f7ff ffc2 	bl	8000d34 <MX_I2C1_MasterInit>

	/*Generate Start Condition*/
	LL_I2C_GenerateStartCondition(I2C1);
 8000db0:	4810      	ldr	r0, [pc, #64]	; (8000df4 <MX_I2C_Read+0x64>)
 8000db2:	f7ff fed7 	bl	8000b64 <LL_I2C_GenerateStartCondition>

	/*Check if Stop Flag is active or not*/
	while(!LL_I2C_IsActiveFlag_STOP(I2C1))
 8000db6:	e010      	b.n	8000dda <MX_I2C_Read+0x4a>
	{
		/*This condition is used to check if the buffer is not empty, if not dataRx pointer take information from the salve*/
		if(LL_I2C_IsActiveFlag_RXNE(I2C1))
 8000db8:	480e      	ldr	r0, [pc, #56]	; (8000df4 <MX_I2C_Read+0x64>)
 8000dba:	f7ff fe79 	bl	8000ab0 <LL_I2C_IsActiveFlag_RXNE>
 8000dbe:	4603      	mov	r3, r0
 8000dc0:	2b00      	cmp	r3, #0
 8000dc2:	d00a      	beq.n	8000dda <MX_I2C_Read+0x4a>
		{
			dataRx[i++] = LL_I2C_ReceiveData8(I2C1);
 8000dc4:	7bfb      	ldrb	r3, [r7, #15]
 8000dc6:	1c5a      	adds	r2, r3, #1
 8000dc8:	73fa      	strb	r2, [r7, #15]
 8000dca:	461a      	mov	r2, r3
 8000dcc:	683b      	ldr	r3, [r7, #0]
 8000dce:	189c      	adds	r4, r3, r2
 8000dd0:	4808      	ldr	r0, [pc, #32]	; (8000df4 <MX_I2C_Read+0x64>)
 8000dd2:	f7ff feff 	bl	8000bd4 <LL_I2C_ReceiveData8>
 8000dd6:	4603      	mov	r3, r0
 8000dd8:	7023      	strb	r3, [r4, #0]
	while(!LL_I2C_IsActiveFlag_STOP(I2C1))
 8000dda:	4806      	ldr	r0, [pc, #24]	; (8000df4 <MX_I2C_Read+0x64>)
 8000ddc:	f7ff fe7b 	bl	8000ad6 <LL_I2C_IsActiveFlag_STOP>
 8000de0:	4603      	mov	r3, r0
 8000de2:	2b00      	cmp	r3, #0
 8000de4:	d0e8      	beq.n	8000db8 <MX_I2C_Read+0x28>
		}
	}

	/*Clear Stop flag when the data transmission has ended*/
	LL_I2C_ClearFlag_STOP(I2C1);
 8000de6:	4803      	ldr	r0, [pc, #12]	; (8000df4 <MX_I2C_Read+0x64>)
 8000de8:	f7ff fe88 	bl	8000afc <LL_I2C_ClearFlag_STOP>

	return;
 8000dec:	bf00      	nop
}
 8000dee:	3714      	adds	r7, #20
 8000df0:	46bd      	mov	sp, r7
 8000df2:	bd90      	pop	{r4, r7, pc}
 8000df4:	40005400 	.word	0x40005400

08000df8 <MX_I2C1_Write>:

void MX_I2C1_Write (uint8_t transferSize, uint8_t *dataTx, uint16_t periph_addr)
{
 8000df8:	b580      	push	{r7, lr}
 8000dfa:	b084      	sub	sp, #16
 8000dfc:	af00      	add	r7, sp, #0
 8000dfe:	4603      	mov	r3, r0
 8000e00:	6039      	str	r1, [r7, #0]
 8000e02:	71fb      	strb	r3, [r7, #7]
 8000e04:	4613      	mov	r3, r2
 8000e06:	80bb      	strh	r3, [r7, #4]
	uint8_t i = 0;
 8000e08:	2300      	movs	r3, #0
 8000e0a:	73fb      	strb	r3, [r7, #15]

	/*Master Initialization*/
	MX_I2C1_MasterInit(MX_I2C1_xferWrite, transferSize, periph_addr);
 8000e0c:	88ba      	ldrh	r2, [r7, #4]
 8000e0e:	79fb      	ldrb	r3, [r7, #7]
 8000e10:	4619      	mov	r1, r3
 8000e12:	2001      	movs	r0, #1
 8000e14:	f7ff ff8e 	bl	8000d34 <MX_I2C1_MasterInit>

	/*Generate Start Condition*/
	LL_I2C_GenerateStartCondition(I2C1);
 8000e18:	4810      	ldr	r0, [pc, #64]	; (8000e5c <MX_I2C1_Write+0x64>)
 8000e1a:	f7ff fea3 	bl	8000b64 <LL_I2C_GenerateStartCondition>

	/*Check if Stop Flag is active or not*/
	while(!LL_I2C_IsActiveFlag_STOP(I2C1))
 8000e1e:	e010      	b.n	8000e42 <MX_I2C1_Write+0x4a>
	{
		if(LL_I2C_IsActiveFlag_TXIS(I2C1))
 8000e20:	480e      	ldr	r0, [pc, #56]	; (8000e5c <MX_I2C1_Write+0x64>)
 8000e22:	f7ff fe32 	bl	8000a8a <LL_I2C_IsActiveFlag_TXIS>
 8000e26:	4603      	mov	r3, r0
 8000e28:	2b00      	cmp	r3, #0
 8000e2a:	d00a      	beq.n	8000e42 <MX_I2C1_Write+0x4a>
		{
			LL_I2C_TransmitData8(I2C1, dataTx[i++]);
 8000e2c:	7bfb      	ldrb	r3, [r7, #15]
 8000e2e:	1c5a      	adds	r2, r3, #1
 8000e30:	73fa      	strb	r2, [r7, #15]
 8000e32:	461a      	mov	r2, r3
 8000e34:	683b      	ldr	r3, [r7, #0]
 8000e36:	4413      	add	r3, r2
 8000e38:	781b      	ldrb	r3, [r3, #0]
 8000e3a:	4619      	mov	r1, r3
 8000e3c:	4807      	ldr	r0, [pc, #28]	; (8000e5c <MX_I2C1_Write+0x64>)
 8000e3e:	f7ff fed6 	bl	8000bee <LL_I2C_TransmitData8>
	while(!LL_I2C_IsActiveFlag_STOP(I2C1))
 8000e42:	4806      	ldr	r0, [pc, #24]	; (8000e5c <MX_I2C1_Write+0x64>)
 8000e44:	f7ff fe47 	bl	8000ad6 <LL_I2C_IsActiveFlag_STOP>
 8000e48:	4603      	mov	r3, r0
 8000e4a:	2b00      	cmp	r3, #0
 8000e4c:	d0e8      	beq.n	8000e20 <MX_I2C1_Write+0x28>
		}
	}

	/*Clear Stop flag when the data transmission has ended*/
	LL_I2C_ClearFlag_STOP(I2C1);
 8000e4e:	4803      	ldr	r0, [pc, #12]	; (8000e5c <MX_I2C1_Write+0x64>)
 8000e50:	f7ff fe54 	bl	8000afc <LL_I2C_ClearFlag_STOP>

	return;
 8000e54:	bf00      	nop
}
 8000e56:	3710      	adds	r7, #16
 8000e58:	46bd      	mov	sp, r7
 8000e5a:	bd80      	pop	{r7, pc}
 8000e5c:	40005400 	.word	0x40005400

08000e60 <__NVIC_SetPriorityGrouping>:
           In case of a conflict between priority grouping and available
           priority bits (__NVIC_PRIO_BITS), the smallest possible priority group is set.
  \param [in]      PriorityGroup  Priority grouping field.
 */
__STATIC_INLINE void __NVIC_SetPriorityGrouping(uint32_t PriorityGroup)
{
 8000e60:	b480      	push	{r7}
 8000e62:	b085      	sub	sp, #20
 8000e64:	af00      	add	r7, sp, #0
 8000e66:	6078      	str	r0, [r7, #4]
  uint32_t reg_value;
  uint32_t PriorityGroupTmp = (PriorityGroup & (uint32_t)0x07UL);             /* only values 0..7 are used          */
 8000e68:	687b      	ldr	r3, [r7, #4]
 8000e6a:	f003 0307 	and.w	r3, r3, #7
 8000e6e:	60fb      	str	r3, [r7, #12]

  reg_value  =  SCB->AIRCR;                                                   /* read old register configuration    */
 8000e70:	4b0c      	ldr	r3, [pc, #48]	; (8000ea4 <__NVIC_SetPriorityGrouping+0x44>)
 8000e72:	68db      	ldr	r3, [r3, #12]
 8000e74:	60bb      	str	r3, [r7, #8]
  reg_value &= ~((uint32_t)(SCB_AIRCR_VECTKEY_Msk | SCB_AIRCR_PRIGROUP_Msk)); /* clear bits to change               */
 8000e76:	68ba      	ldr	r2, [r7, #8]
 8000e78:	f64f 03ff 	movw	r3, #63743	; 0xf8ff
 8000e7c:	4013      	ands	r3, r2
 8000e7e:	60bb      	str	r3, [r7, #8]
  reg_value  =  (reg_value                                   |
                ((uint32_t)0x5FAUL << SCB_AIRCR_VECTKEY_Pos) |
                (PriorityGroupTmp << SCB_AIRCR_PRIGROUP_Pos)  );              /* Insert write key and priority group */
 8000e80:	68fb      	ldr	r3, [r7, #12]
 8000e82:	021a      	lsls	r2, r3, #8
                ((uint32_t)0x5FAUL << SCB_AIRCR_VECTKEY_Pos) |
 8000e84:	68bb      	ldr	r3, [r7, #8]
 8000e86:	4313      	orrs	r3, r2
  reg_value  =  (reg_value                                   |
 8000e88:	f043 63bf 	orr.w	r3, r3, #100139008	; 0x5f80000
 8000e8c:	f443 3300 	orr.w	r3, r3, #131072	; 0x20000
 8000e90:	60bb      	str	r3, [r7, #8]
  SCB->AIRCR =  reg_value;
 8000e92:	4a04      	ldr	r2, [pc, #16]	; (8000ea4 <__NVIC_SetPriorityGrouping+0x44>)
 8000e94:	68bb      	ldr	r3, [r7, #8]
 8000e96:	60d3      	str	r3, [r2, #12]
}
 8000e98:	bf00      	nop
 8000e9a:	3714      	adds	r7, #20
 8000e9c:	46bd      	mov	sp, r7
 8000e9e:	f85d 7b04 	ldr.w	r7, [sp], #4
 8000ea2:	4770      	bx	lr
 8000ea4:	e000ed00 	.word	0xe000ed00

08000ea8 <__NVIC_GetPriorityGrouping>:
  \brief   Get Priority Grouping
  \details Reads the priority grouping field from the NVIC Interrupt Controller.
  \return                Priority grouping field (SCB->AIRCR [10:8] PRIGROUP field).
 */
__STATIC_INLINE uint32_t __NVIC_GetPriorityGrouping(void)
{
 8000ea8:	b480      	push	{r7}
 8000eaa:	af00      	add	r7, sp, #0
  return ((uint32_t)((SCB->AIRCR & SCB_AIRCR_PRIGROUP_Msk) >> SCB_AIRCR_PRIGROUP_Pos));
 8000eac:	4b04      	ldr	r3, [pc, #16]	; (8000ec0 <__NVIC_GetPriorityGrouping+0x18>)
 8000eae:	68db      	ldr	r3, [r3, #12]
 8000eb0:	0a1b      	lsrs	r3, r3, #8
 8000eb2:	f003 0307 	and.w	r3, r3, #7
}
 8000eb6:	4618      	mov	r0, r3
 8000eb8:	46bd      	mov	sp, r7
 8000eba:	f85d 7b04 	ldr.w	r7, [sp], #4
 8000ebe:	4770      	bx	lr
 8000ec0:	e000ed00 	.word	0xe000ed00

08000ec4 <__NVIC_SetPriority>:
  \param [in]      IRQn  Interrupt number.
  \param [in]  priority  Priority to set.
  \note    The priority cannot be set for every processor exception.
 */
__STATIC_INLINE void __NVIC_SetPriority(IRQn_Type IRQn, uint32_t priority)
{
 8000ec4:	b480      	push	{r7}
 8000ec6:	b083      	sub	sp, #12
 8000ec8:	af00      	add	r7, sp, #0
 8000eca:	4603      	mov	r3, r0
 8000ecc:	6039      	str	r1, [r7, #0]
 8000ece:	71fb      	strb	r3, [r7, #7]
  if ((int32_t)(IRQn) >= 0)
 8000ed0:	f997 3007 	ldrsb.w	r3, [r7, #7]
 8000ed4:	2b00      	cmp	r3, #0
 8000ed6:	db0a      	blt.n	8000eee <__NVIC_SetPriority+0x2a>
  {
    NVIC->IP[((uint32_t)IRQn)]               = (uint8_t)((priority << (8U - __NVIC_PRIO_BITS)) & (uint32_t)0xFFUL);
 8000ed8:	490d      	ldr	r1, [pc, #52]	; (8000f10 <__NVIC_SetPriority+0x4c>)
 8000eda:	f997 3007 	ldrsb.w	r3, [r7, #7]
 8000ede:	683a      	ldr	r2, [r7, #0]
 8000ee0:	b2d2      	uxtb	r2, r2
 8000ee2:	0112      	lsls	r2, r2, #4
 8000ee4:	b2d2      	uxtb	r2, r2
 8000ee6:	440b      	add	r3, r1
 8000ee8:	f883 2300 	strb.w	r2, [r3, #768]	; 0x300
  }
  else
  {
    SCB->SHP[(((uint32_t)IRQn) & 0xFUL)-4UL] = (uint8_t)((priority << (8U - __NVIC_PRIO_BITS)) & (uint32_t)0xFFUL);
  }
}
 8000eec:	e00a      	b.n	8000f04 <__NVIC_SetPriority+0x40>
    SCB->SHP[(((uint32_t)IRQn) & 0xFUL)-4UL] = (uint8_t)((priority << (8U - __NVIC_PRIO_BITS)) & (uint32_t)0xFFUL);
 8000eee:	4909      	ldr	r1, [pc, #36]	; (8000f14 <__NVIC_SetPriority+0x50>)
 8000ef0:	79fb      	ldrb	r3, [r7, #7]
 8000ef2:	f003 030f 	and.w	r3, r3, #15
 8000ef6:	3b04      	subs	r3, #4
 8000ef8:	683a      	ldr	r2, [r7, #0]
 8000efa:	b2d2      	uxtb	r2, r2
 8000efc:	0112      	lsls	r2, r2, #4
 8000efe:	b2d2      	uxtb	r2, r2
 8000f00:	440b      	add	r3, r1
 8000f02:	761a      	strb	r2, [r3, #24]
}
 8000f04:	bf00      	nop
 8000f06:	370c      	adds	r7, #12
 8000f08:	46bd      	mov	sp, r7
 8000f0a:	f85d 7b04 	ldr.w	r7, [sp], #4
 8000f0e:	4770      	bx	lr
 8000f10:	e000e100 	.word	0xe000e100
 8000f14:	e000ed00 	.word	0xe000ed00

08000f18 <NVIC_EncodePriority>:
  \param [in]   PreemptPriority  Preemptive priority value (starting from 0).
  \param [in]       SubPriority  Subpriority value (starting from 0).
  \return                        Encoded priority. Value can be used in the function \ref NVIC_SetPriority().
 */
__STATIC_INLINE uint32_t NVIC_EncodePriority (uint32_t PriorityGroup, uint32_t PreemptPriority, uint32_t SubPriority)
{
 8000f18:	b480      	push	{r7}
 8000f1a:	b089      	sub	sp, #36	; 0x24
 8000f1c:	af00      	add	r7, sp, #0
 8000f1e:	60f8      	str	r0, [r7, #12]
 8000f20:	60b9      	str	r1, [r7, #8]
 8000f22:	607a      	str	r2, [r7, #4]
  uint32_t PriorityGroupTmp = (PriorityGroup & (uint32_t)0x07UL);   /* only values 0..7 are used          */
 8000f24:	68fb      	ldr	r3, [r7, #12]
 8000f26:	f003 0307 	and.w	r3, r3, #7
 8000f2a:	61fb      	str	r3, [r7, #28]
  uint32_t PreemptPriorityBits;
  uint32_t SubPriorityBits;

  PreemptPriorityBits = ((7UL - PriorityGroupTmp) > (uint32_t)(__NVIC_PRIO_BITS)) ? (uint32_t)(__NVIC_PRIO_BITS) : (uint32_t)(7UL - PriorityGroupTmp);
 8000f2c:	69fb      	ldr	r3, [r7, #28]
 8000f2e:	f1c3 0307 	rsb	r3, r3, #7
 8000f32:	2b04      	cmp	r3, #4
 8000f34:	bf28      	it	cs
 8000f36:	2304      	movcs	r3, #4
 8000f38:	61bb      	str	r3, [r7, #24]
  SubPriorityBits     = ((PriorityGroupTmp + (uint32_t)(__NVIC_PRIO_BITS)) < (uint32_t)7UL) ? (uint32_t)0UL : (uint32_t)((PriorityGroupTmp - 7UL) + (uint32_t)(__NVIC_PRIO_BITS));
 8000f3a:	69fb      	ldr	r3, [r7, #28]
 8000f3c:	3304      	adds	r3, #4
 8000f3e:	2b06      	cmp	r3, #6
 8000f40:	d902      	bls.n	8000f48 <NVIC_EncodePriority+0x30>
 8000f42:	69fb      	ldr	r3, [r7, #28]
 8000f44:	3b03      	subs	r3, #3
 8000f46:	e000      	b.n	8000f4a <NVIC_EncodePriority+0x32>
 8000f48:	2300      	movs	r3, #0
 8000f4a:	617b      	str	r3, [r7, #20]

  return (
           ((PreemptPriority & (uint32_t)((1UL << (PreemptPriorityBits)) - 1UL)) << SubPriorityBits) |
 8000f4c:	2201      	movs	r2, #1
 8000f4e:	69bb      	ldr	r3, [r7, #24]
 8000f50:	fa02 f303 	lsl.w	r3, r2, r3
 8000f54:	1e5a      	subs	r2, r3, #1
 8000f56:	68bb      	ldr	r3, [r7, #8]
 8000f58:	401a      	ands	r2, r3
 8000f5a:	697b      	ldr	r3, [r7, #20]
 8000f5c:	409a      	lsls	r2, r3
           ((SubPriority     & (uint32_t)((1UL << (SubPriorityBits    )) - 1UL)))
 8000f5e:	2101      	movs	r1, #1
 8000f60:	697b      	ldr	r3, [r7, #20]
 8000f62:	fa01 f303 	lsl.w	r3, r1, r3
 8000f66:	1e59      	subs	r1, r3, #1
 8000f68:	687b      	ldr	r3, [r7, #4]
 8000f6a:	400b      	ands	r3, r1
           ((PreemptPriority & (uint32_t)((1UL << (PreemptPriorityBits)) - 1UL)) << SubPriorityBits) |
 8000f6c:	4313      	orrs	r3, r2
         );
}
 8000f6e:	4618      	mov	r0, r3
 8000f70:	3724      	adds	r7, #36	; 0x24
 8000f72:	46bd      	mov	sp, r7
 8000f74:	f85d 7b04 	ldr.w	r7, [sp], #4
 8000f78:	4770      	bx	lr
	...

08000f7c <LL_RCC_HSI_Enable>:
  * @brief  Enable HSI oscillator
  * @rmtoll CR           HSION         LL_RCC_HSI_Enable
  * @retval None
  */
__STATIC_INLINE void LL_RCC_HSI_Enable(void)
{
 8000f7c:	b480      	push	{r7}
 8000f7e:	af00      	add	r7, sp, #0
  SET_BIT(RCC->CR, RCC_CR_HSION);
 8000f80:	4a05      	ldr	r2, [pc, #20]	; (8000f98 <LL_RCC_HSI_Enable+0x1c>)
 8000f82:	4b05      	ldr	r3, [pc, #20]	; (8000f98 <LL_RCC_HSI_Enable+0x1c>)
 8000f84:	681b      	ldr	r3, [r3, #0]
 8000f86:	f043 0301 	orr.w	r3, r3, #1
 8000f8a:	6013      	str	r3, [r2, #0]
}
 8000f8c:	bf00      	nop
 8000f8e:	46bd      	mov	sp, r7
 8000f90:	f85d 7b04 	ldr.w	r7, [sp], #4
 8000f94:	4770      	bx	lr
 8000f96:	bf00      	nop
 8000f98:	40021000 	.word	0x40021000

08000f9c <LL_RCC_HSI_IsReady>:
  * @brief  Check if HSI clock is ready
  * @rmtoll CR           HSIRDY        LL_RCC_HSI_IsReady
  * @retval State of bit (1 or 0).
  */
__STATIC_INLINE uint32_t LL_RCC_HSI_IsReady(void)
{
 8000f9c:	b480      	push	{r7}
 8000f9e:	af00      	add	r7, sp, #0
  return (READ_BIT(RCC->CR, RCC_CR_HSIRDY) == (RCC_CR_HSIRDY));
 8000fa0:	4b06      	ldr	r3, [pc, #24]	; (8000fbc <LL_RCC_HSI_IsReady+0x20>)
 8000fa2:	681b      	ldr	r3, [r3, #0]
 8000fa4:	f003 0302 	and.w	r3, r3, #2
 8000fa8:	2b02      	cmp	r3, #2
 8000faa:	bf0c      	ite	eq
 8000fac:	2301      	moveq	r3, #1
 8000fae:	2300      	movne	r3, #0
 8000fb0:	b2db      	uxtb	r3, r3
}
 8000fb2:	4618      	mov	r0, r3
 8000fb4:	46bd      	mov	sp, r7
 8000fb6:	f85d 7b04 	ldr.w	r7, [sp], #4
 8000fba:	4770      	bx	lr
 8000fbc:	40021000 	.word	0x40021000

08000fc0 <LL_RCC_HSI_SetCalibTrimming>:
  * @rmtoll CR        HSITRIM       LL_RCC_HSI_SetCalibTrimming
  * @param  Value between Min_Data = 0x00 and Max_Data = 0x1F
  * @retval None
  */
__STATIC_INLINE void LL_RCC_HSI_SetCalibTrimming(uint32_t Value)
{
 8000fc0:	b480      	push	{r7}
 8000fc2:	b083      	sub	sp, #12
 8000fc4:	af00      	add	r7, sp, #0
 8000fc6:	6078      	str	r0, [r7, #4]
  MODIFY_REG(RCC->CR, RCC_CR_HSITRIM, Value << RCC_CR_HSITRIM_Pos);
 8000fc8:	4907      	ldr	r1, [pc, #28]	; (8000fe8 <LL_RCC_HSI_SetCalibTrimming+0x28>)
 8000fca:	4b07      	ldr	r3, [pc, #28]	; (8000fe8 <LL_RCC_HSI_SetCalibTrimming+0x28>)
 8000fcc:	681b      	ldr	r3, [r3, #0]
 8000fce:	f023 02f8 	bic.w	r2, r3, #248	; 0xf8
 8000fd2:	687b      	ldr	r3, [r7, #4]
 8000fd4:	00db      	lsls	r3, r3, #3
 8000fd6:	4313      	orrs	r3, r2
 8000fd8:	600b      	str	r3, [r1, #0]
}
 8000fda:	bf00      	nop
 8000fdc:	370c      	adds	r7, #12
 8000fde:	46bd      	mov	sp, r7
 8000fe0:	f85d 7b04 	ldr.w	r7, [sp], #4
 8000fe4:	4770      	bx	lr
 8000fe6:	bf00      	nop
 8000fe8:	40021000 	.word	0x40021000

08000fec <LL_RCC_LSI_Enable>:
  * @brief  Enable LSI Oscillator
  * @rmtoll CSR          LSION         LL_RCC_LSI_Enable
  * @retval None
  */
__STATIC_INLINE void LL_RCC_LSI_Enable(void)
{
 8000fec:	b480      	push	{r7}
 8000fee:	af00      	add	r7, sp, #0
  SET_BIT(RCC->CSR, RCC_CSR_LSION);
 8000ff0:	4a05      	ldr	r2, [pc, #20]	; (8001008 <LL_RCC_LSI_Enable+0x1c>)
 8000ff2:	4b05      	ldr	r3, [pc, #20]	; (8001008 <LL_RCC_LSI_Enable+0x1c>)
 8000ff4:	6a5b      	ldr	r3, [r3, #36]	; 0x24
 8000ff6:	f043 0301 	orr.w	r3, r3, #1
 8000ffa:	6253      	str	r3, [r2, #36]	; 0x24
}
 8000ffc:	bf00      	nop
 8000ffe:	46bd      	mov	sp, r7
 8001000:	f85d 7b04 	ldr.w	r7, [sp], #4
 8001004:	4770      	bx	lr
 8001006:	bf00      	nop
 8001008:	40021000 	.word	0x40021000

0800100c <LL_RCC_LSI_IsReady>:
  * @brief  Check if LSI is Ready
  * @rmtoll CSR          LSIRDY        LL_RCC_LSI_IsReady
  * @retval State of bit (1 or 0).
  */
__STATIC_INLINE uint32_t LL_RCC_LSI_IsReady(void)
{
 800100c:	b480      	push	{r7}
 800100e:	af00      	add	r7, sp, #0
  return (READ_BIT(RCC->CSR, RCC_CSR_LSIRDY) == (RCC_CSR_LSIRDY));
 8001010:	4b06      	ldr	r3, [pc, #24]	; (800102c <LL_RCC_LSI_IsReady+0x20>)
 8001012:	6a5b      	ldr	r3, [r3, #36]	; 0x24
 8001014:	f003 0302 	and.w	r3, r3, #2
 8001018:	2b02      	cmp	r3, #2
 800101a:	bf0c      	ite	eq
 800101c:	2301      	moveq	r3, #1
 800101e:	2300      	movne	r3, #0
 8001020:	b2db      	uxtb	r3, r3
}
 8001022:	4618      	mov	r0, r3
 8001024:	46bd      	mov	sp, r7
 8001026:	f85d 7b04 	ldr.w	r7, [sp], #4
 800102a:	4770      	bx	lr
 800102c:	40021000 	.word	0x40021000

08001030 <LL_RCC_SetSysClkSource>:
  *         @arg @ref LL_RCC_SYS_CLKSOURCE_HSE
  *         @arg @ref LL_RCC_SYS_CLKSOURCE_PLL
  * @retval None
  */
__STATIC_INLINE void LL_RCC_SetSysClkSource(uint32_t Source)
{
 8001030:	b480      	push	{r7}
 8001032:	b083      	sub	sp, #12
 8001034:	af00      	add	r7, sp, #0
 8001036:	6078      	str	r0, [r7, #4]
  MODIFY_REG(RCC->CFGR, RCC_CFGR_SW, Source);
 8001038:	4906      	ldr	r1, [pc, #24]	; (8001054 <LL_RCC_SetSysClkSource+0x24>)
 800103a:	4b06      	ldr	r3, [pc, #24]	; (8001054 <LL_RCC_SetSysClkSource+0x24>)
 800103c:	685b      	ldr	r3, [r3, #4]
 800103e:	f023 0203 	bic.w	r2, r3, #3
 8001042:	687b      	ldr	r3, [r7, #4]
 8001044:	4313      	orrs	r3, r2
 8001046:	604b      	str	r3, [r1, #4]
}
 8001048:	bf00      	nop
 800104a:	370c      	adds	r7, #12
 800104c:	46bd      	mov	sp, r7
 800104e:	f85d 7b04 	ldr.w	r7, [sp], #4
 8001052:	4770      	bx	lr
 8001054:	40021000 	.word	0x40021000

08001058 <LL_RCC_GetSysClkSource>:
  *         @arg @ref LL_RCC_SYS_CLKSOURCE_STATUS_HSI
  *         @arg @ref LL_RCC_SYS_CLKSOURCE_STATUS_HSE
  *         @arg @ref LL_RCC_SYS_CLKSOURCE_STATUS_PLL
  */
__STATIC_INLINE uint32_t LL_RCC_GetSysClkSource(void)
{
 8001058:	b480      	push	{r7}
 800105a:	af00      	add	r7, sp, #0
  return (uint32_t)(READ_BIT(RCC->CFGR, RCC_CFGR_SWS));
 800105c:	4b04      	ldr	r3, [pc, #16]	; (8001070 <LL_RCC_GetSysClkSource+0x18>)
 800105e:	685b      	ldr	r3, [r3, #4]
 8001060:	f003 030c 	and.w	r3, r3, #12
}
 8001064:	4618      	mov	r0, r3
 8001066:	46bd      	mov	sp, r7
 8001068:	f85d 7b04 	ldr.w	r7, [sp], #4
 800106c:	4770      	bx	lr
 800106e:	bf00      	nop
 8001070:	40021000 	.word	0x40021000

08001074 <LL_RCC_SetAHBPrescaler>:
  *         @arg @ref LL_RCC_SYSCLK_DIV_256
  *         @arg @ref LL_RCC_SYSCLK_DIV_512
  * @retval None
  */
__STATIC_INLINE void LL_RCC_SetAHBPrescaler(uint32_t Prescaler)
{
 8001074:	b480      	push	{r7}
 8001076:	b083      	sub	sp, #12
 8001078:	af00      	add	r7, sp, #0
 800107a:	6078      	str	r0, [r7, #4]
  MODIFY_REG(RCC->CFGR, RCC_CFGR_HPRE, Prescaler);
 800107c:	4906      	ldr	r1, [pc, #24]	; (8001098 <LL_RCC_SetAHBPrescaler+0x24>)
 800107e:	4b06      	ldr	r3, [pc, #24]	; (8001098 <LL_RCC_SetAHBPrescaler+0x24>)
 8001080:	685b      	ldr	r3, [r3, #4]
 8001082:	f023 02f0 	bic.w	r2, r3, #240	; 0xf0
 8001086:	687b      	ldr	r3, [r7, #4]
 8001088:	4313      	orrs	r3, r2
 800108a:	604b      	str	r3, [r1, #4]
}
 800108c:	bf00      	nop
 800108e:	370c      	adds	r7, #12
 8001090:	46bd      	mov	sp, r7
 8001092:	f85d 7b04 	ldr.w	r7, [sp], #4
 8001096:	4770      	bx	lr
 8001098:	40021000 	.word	0x40021000

0800109c <LL_RCC_SetAPB1Prescaler>:
  *         @arg @ref LL_RCC_APB1_DIV_8
  *         @arg @ref LL_RCC_APB1_DIV_16
  * @retval None
  */
__STATIC_INLINE void LL_RCC_SetAPB1Prescaler(uint32_t Prescaler)
{
 800109c:	b480      	push	{r7}
 800109e:	b083      	sub	sp, #12
 80010a0:	af00      	add	r7, sp, #0
 80010a2:	6078      	str	r0, [r7, #4]
  MODIFY_REG(RCC->CFGR, RCC_CFGR_PPRE1, Prescaler);
 80010a4:	4906      	ldr	r1, [pc, #24]	; (80010c0 <LL_RCC_SetAPB1Prescaler+0x24>)
 80010a6:	4b06      	ldr	r3, [pc, #24]	; (80010c0 <LL_RCC_SetAPB1Prescaler+0x24>)
 80010a8:	685b      	ldr	r3, [r3, #4]
 80010aa:	f423 62e0 	bic.w	r2, r3, #1792	; 0x700
 80010ae:	687b      	ldr	r3, [r7, #4]
 80010b0:	4313      	orrs	r3, r2
 80010b2:	604b      	str	r3, [r1, #4]
}
 80010b4:	bf00      	nop
 80010b6:	370c      	adds	r7, #12
 80010b8:	46bd      	mov	sp, r7
 80010ba:	f85d 7b04 	ldr.w	r7, [sp], #4
 80010be:	4770      	bx	lr
 80010c0:	40021000 	.word	0x40021000

080010c4 <LL_RCC_SetAPB2Prescaler>:
  *         @arg @ref LL_RCC_APB2_DIV_8
  *         @arg @ref LL_RCC_APB2_DIV_16
  * @retval None
  */
__STATIC_INLINE void LL_RCC_SetAPB2Prescaler(uint32_t Prescaler)
{
 80010c4:	b480      	push	{r7}
 80010c6:	b083      	sub	sp, #12
 80010c8:	af00      	add	r7, sp, #0
 80010ca:	6078      	str	r0, [r7, #4]
  MODIFY_REG(RCC->CFGR, RCC_CFGR_PPRE2, Prescaler);
 80010cc:	4906      	ldr	r1, [pc, #24]	; (80010e8 <LL_RCC_SetAPB2Prescaler+0x24>)
 80010ce:	4b06      	ldr	r3, [pc, #24]	; (80010e8 <LL_RCC_SetAPB2Prescaler+0x24>)
 80010d0:	685b      	ldr	r3, [r3, #4]
 80010d2:	f423 5260 	bic.w	r2, r3, #14336	; 0x3800
 80010d6:	687b      	ldr	r3, [r7, #4]
 80010d8:	4313      	orrs	r3, r2
 80010da:	604b      	str	r3, [r1, #4]
}
 80010dc:	bf00      	nop
 80010de:	370c      	adds	r7, #12
 80010e0:	46bd      	mov	sp, r7
 80010e2:	f85d 7b04 	ldr.w	r7, [sp], #4
 80010e6:	4770      	bx	lr
 80010e8:	40021000 	.word	0x40021000

080010ec <LL_RCC_SetI2CClockSource>:
  *
  *         (*) value not defined in all devices.
  * @retval None
  */
__STATIC_INLINE void LL_RCC_SetI2CClockSource(uint32_t I2CxSource)
{
 80010ec:	b480      	push	{r7}
 80010ee:	b083      	sub	sp, #12
 80010f0:	af00      	add	r7, sp, #0
 80010f2:	6078      	str	r0, [r7, #4]
  MODIFY_REG(RCC->CFGR3, ((I2CxSource  & 0xFF000000U) >> 24U), (I2CxSource & 0x00FFFFFFU));
 80010f4:	4908      	ldr	r1, [pc, #32]	; (8001118 <LL_RCC_SetI2CClockSource+0x2c>)
 80010f6:	4b08      	ldr	r3, [pc, #32]	; (8001118 <LL_RCC_SetI2CClockSource+0x2c>)
 80010f8:	6b1a      	ldr	r2, [r3, #48]	; 0x30
 80010fa:	687b      	ldr	r3, [r7, #4]
 80010fc:	0e1b      	lsrs	r3, r3, #24
 80010fe:	43db      	mvns	r3, r3
 8001100:	401a      	ands	r2, r3
 8001102:	687b      	ldr	r3, [r7, #4]
 8001104:	f023 437f 	bic.w	r3, r3, #4278190080	; 0xff000000
 8001108:	4313      	orrs	r3, r2
 800110a:	630b      	str	r3, [r1, #48]	; 0x30
}
 800110c:	bf00      	nop
 800110e:	370c      	adds	r7, #12
 8001110:	46bd      	mov	sp, r7
 8001112:	f85d 7b04 	ldr.w	r7, [sp], #4
 8001116:	4770      	bx	lr
 8001118:	40021000 	.word	0x40021000

0800111c <LL_RCC_SetADCClockSource>:
  *
  *         (*) value not defined in all devices.
  * @retval None
  */
__STATIC_INLINE void LL_RCC_SetADCClockSource(uint32_t ADCxSource)
{
 800111c:	b480      	push	{r7}
 800111e:	b083      	sub	sp, #12
 8001120:	af00      	add	r7, sp, #0
 8001122:	6078      	str	r0, [r7, #4]
#if defined(RCC_CFGR2_ADCPRE34)
  MODIFY_REG(RCC->CFGR2, (ADCxSource >> 16U), (ADCxSource & 0x0000FFFFU));
#else
  MODIFY_REG(RCC->CFGR2, RCC_CFGR2_ADCPRE12, ADCxSource);
 8001124:	4906      	ldr	r1, [pc, #24]	; (8001140 <LL_RCC_SetADCClockSource+0x24>)
 8001126:	4b06      	ldr	r3, [pc, #24]	; (8001140 <LL_RCC_SetADCClockSource+0x24>)
 8001128:	6adb      	ldr	r3, [r3, #44]	; 0x2c
 800112a:	f423 72f8 	bic.w	r2, r3, #496	; 0x1f0
 800112e:	687b      	ldr	r3, [r7, #4]
 8001130:	4313      	orrs	r3, r2
 8001132:	62cb      	str	r3, [r1, #44]	; 0x2c
#endif /* RCC_CFGR2_ADCPRE34 */
}
 8001134:	bf00      	nop
 8001136:	370c      	adds	r7, #12
 8001138:	46bd      	mov	sp, r7
 800113a:	f85d 7b04 	ldr.w	r7, [sp], #4
 800113e:	4770      	bx	lr
 8001140:	40021000 	.word	0x40021000

08001144 <LL_RCC_SetRTCClockSource>:
  *         @arg @ref LL_RCC_RTC_CLKSOURCE_LSI
  *         @arg @ref LL_RCC_RTC_CLKSOURCE_HSE_DIV32
  * @retval None
  */
__STATIC_INLINE void LL_RCC_SetRTCClockSource(uint32_t Source)
{
 8001144:	b480      	push	{r7}
 8001146:	b083      	sub	sp, #12
 8001148:	af00      	add	r7, sp, #0
 800114a:	6078      	str	r0, [r7, #4]
  MODIFY_REG(RCC->BDCR, RCC_BDCR_RTCSEL, Source);
 800114c:	4906      	ldr	r1, [pc, #24]	; (8001168 <LL_RCC_SetRTCClockSource+0x24>)
 800114e:	4b06      	ldr	r3, [pc, #24]	; (8001168 <LL_RCC_SetRTCClockSource+0x24>)
 8001150:	6a1b      	ldr	r3, [r3, #32]
 8001152:	f423 7240 	bic.w	r2, r3, #768	; 0x300
 8001156:	687b      	ldr	r3, [r7, #4]
 8001158:	4313      	orrs	r3, r2
 800115a:	620b      	str	r3, [r1, #32]
}
 800115c:	bf00      	nop
 800115e:	370c      	adds	r7, #12
 8001160:	46bd      	mov	sp, r7
 8001162:	f85d 7b04 	ldr.w	r7, [sp], #4
 8001166:	4770      	bx	lr
 8001168:	40021000 	.word	0x40021000

0800116c <LL_RCC_GetRTCClockSource>:
  *         @arg @ref LL_RCC_RTC_CLKSOURCE_LSE
  *         @arg @ref LL_RCC_RTC_CLKSOURCE_LSI
  *         @arg @ref LL_RCC_RTC_CLKSOURCE_HSE_DIV32
  */
__STATIC_INLINE uint32_t LL_RCC_GetRTCClockSource(void)
{
 800116c:	b480      	push	{r7}
 800116e:	af00      	add	r7, sp, #0
  return (uint32_t)(READ_BIT(RCC->BDCR, RCC_BDCR_RTCSEL));
 8001170:	4b04      	ldr	r3, [pc, #16]	; (8001184 <LL_RCC_GetRTCClockSource+0x18>)
 8001172:	6a1b      	ldr	r3, [r3, #32]
 8001174:	f403 7340 	and.w	r3, r3, #768	; 0x300
}
 8001178:	4618      	mov	r0, r3
 800117a:	46bd      	mov	sp, r7
 800117c:	f85d 7b04 	ldr.w	r7, [sp], #4
 8001180:	4770      	bx	lr
 8001182:	bf00      	nop
 8001184:	40021000 	.word	0x40021000

08001188 <LL_RCC_EnableRTC>:
  * @brief  Enable RTC
  * @rmtoll BDCR         RTCEN         LL_RCC_EnableRTC
  * @retval None
  */
__STATIC_INLINE void LL_RCC_EnableRTC(void)
{
 8001188:	b480      	push	{r7}
 800118a:	af00      	add	r7, sp, #0
  SET_BIT(RCC->BDCR, RCC_BDCR_RTCEN);
 800118c:	4a05      	ldr	r2, [pc, #20]	; (80011a4 <LL_RCC_EnableRTC+0x1c>)
 800118e:	4b05      	ldr	r3, [pc, #20]	; (80011a4 <LL_RCC_EnableRTC+0x1c>)
 8001190:	6a1b      	ldr	r3, [r3, #32]
 8001192:	f443 4300 	orr.w	r3, r3, #32768	; 0x8000
 8001196:	6213      	str	r3, [r2, #32]
}
 8001198:	bf00      	nop
 800119a:	46bd      	mov	sp, r7
 800119c:	f85d 7b04 	ldr.w	r7, [sp], #4
 80011a0:	4770      	bx	lr
 80011a2:	bf00      	nop
 80011a4:	40021000 	.word	0x40021000

080011a8 <LL_RCC_ForceBackupDomainReset>:
  * @brief  Force the Backup domain reset
  * @rmtoll BDCR         BDRST         LL_RCC_ForceBackupDomainReset
  * @retval None
  */
__STATIC_INLINE void LL_RCC_ForceBackupDomainReset(void)
{
 80011a8:	b480      	push	{r7}
 80011aa:	af00      	add	r7, sp, #0
  SET_BIT(RCC->BDCR, RCC_BDCR_BDRST);
 80011ac:	4a05      	ldr	r2, [pc, #20]	; (80011c4 <LL_RCC_ForceBackupDomainReset+0x1c>)
 80011ae:	4b05      	ldr	r3, [pc, #20]	; (80011c4 <LL_RCC_ForceBackupDomainReset+0x1c>)
 80011b0:	6a1b      	ldr	r3, [r3, #32]
 80011b2:	f443 3380 	orr.w	r3, r3, #65536	; 0x10000
 80011b6:	6213      	str	r3, [r2, #32]
}
 80011b8:	bf00      	nop
 80011ba:	46bd      	mov	sp, r7
 80011bc:	f85d 7b04 	ldr.w	r7, [sp], #4
 80011c0:	4770      	bx	lr
 80011c2:	bf00      	nop
 80011c4:	40021000 	.word	0x40021000

080011c8 <LL_RCC_ReleaseBackupDomainReset>:
  * @brief  Release the Backup domain reset
  * @rmtoll BDCR         BDRST         LL_RCC_ReleaseBackupDomainReset
  * @retval None
  */
__STATIC_INLINE void LL_RCC_ReleaseBackupDomainReset(void)
{
 80011c8:	b480      	push	{r7}
 80011ca:	af00      	add	r7, sp, #0
  CLEAR_BIT(RCC->BDCR, RCC_BDCR_BDRST);
 80011cc:	4a05      	ldr	r2, [pc, #20]	; (80011e4 <LL_RCC_ReleaseBackupDomainReset+0x1c>)
 80011ce:	4b05      	ldr	r3, [pc, #20]	; (80011e4 <LL_RCC_ReleaseBackupDomainReset+0x1c>)
 80011d0:	6a1b      	ldr	r3, [r3, #32]
 80011d2:	f423 3380 	bic.w	r3, r3, #65536	; 0x10000
 80011d6:	6213      	str	r3, [r2, #32]
}
 80011d8:	bf00      	nop
 80011da:	46bd      	mov	sp, r7
 80011dc:	f85d 7b04 	ldr.w	r7, [sp], #4
 80011e0:	4770      	bx	lr
 80011e2:	bf00      	nop
 80011e4:	40021000 	.word	0x40021000

080011e8 <LL_RCC_PLL_Enable>:
  * @brief  Enable PLL
  * @rmtoll CR           PLLON         LL_RCC_PLL_Enable
  * @retval None
  */
__STATIC_INLINE void LL_RCC_PLL_Enable(void)
{
 80011e8:	b480      	push	{r7}
 80011ea:	af00      	add	r7, sp, #0
  SET_BIT(RCC->CR, RCC_CR_PLLON);
 80011ec:	4a05      	ldr	r2, [pc, #20]	; (8001204 <LL_RCC_PLL_Enable+0x1c>)
 80011ee:	4b05      	ldr	r3, [pc, #20]	; (8001204 <LL_RCC_PLL_Enable+0x1c>)
 80011f0:	681b      	ldr	r3, [r3, #0]
 80011f2:	f043 7380 	orr.w	r3, r3, #16777216	; 0x1000000
 80011f6:	6013      	str	r3, [r2, #0]
}
 80011f8:	bf00      	nop
 80011fa:	46bd      	mov	sp, r7
 80011fc:	f85d 7b04 	ldr.w	r7, [sp], #4
 8001200:	4770      	bx	lr
 8001202:	bf00      	nop
 8001204:	40021000 	.word	0x40021000

08001208 <LL_RCC_PLL_IsReady>:
  * @brief  Check if PLL Ready
  * @rmtoll CR           PLLRDY        LL_RCC_PLL_IsReady
  * @retval State of bit (1 or 0).
  */
__STATIC_INLINE uint32_t LL_RCC_PLL_IsReady(void)
{
 8001208:	b480      	push	{r7}
 800120a:	af00      	add	r7, sp, #0
  return (READ_BIT(RCC->CR, RCC_CR_PLLRDY) == (RCC_CR_PLLRDY));
 800120c:	4b07      	ldr	r3, [pc, #28]	; (800122c <LL_RCC_PLL_IsReady+0x24>)
 800120e:	681b      	ldr	r3, [r3, #0]
 8001210:	f003 7300 	and.w	r3, r3, #33554432	; 0x2000000
 8001214:	f1b3 7f00 	cmp.w	r3, #33554432	; 0x2000000
 8001218:	bf0c      	ite	eq
 800121a:	2301      	moveq	r3, #1
 800121c:	2300      	movne	r3, #0
 800121e:	b2db      	uxtb	r3, r3
}
 8001220:	4618      	mov	r0, r3
 8001222:	46bd      	mov	sp, r7
 8001224:	f85d 7b04 	ldr.w	r7, [sp], #4
 8001228:	4770      	bx	lr
 800122a:	bf00      	nop
 800122c:	40021000 	.word	0x40021000

08001230 <LL_RCC_PLL_ConfigDomain_SYS>:
  *         @arg @ref LL_RCC_PLL_MUL_15
  *         @arg @ref LL_RCC_PLL_MUL_16
  * @retval None
  */
__STATIC_INLINE void LL_RCC_PLL_ConfigDomain_SYS(uint32_t Source, uint32_t PLLMul)
{
 8001230:	b480      	push	{r7}
 8001232:	b083      	sub	sp, #12
 8001234:	af00      	add	r7, sp, #0
 8001236:	6078      	str	r0, [r7, #4]
 8001238:	6039      	str	r1, [r7, #0]
  MODIFY_REG(RCC->CFGR, RCC_CFGR_PLLSRC | RCC_CFGR_PLLMUL, (Source & RCC_CFGR_PLLSRC) | PLLMul);
 800123a:	480e      	ldr	r0, [pc, #56]	; (8001274 <LL_RCC_PLL_ConfigDomain_SYS+0x44>)
 800123c:	4b0d      	ldr	r3, [pc, #52]	; (8001274 <LL_RCC_PLL_ConfigDomain_SYS+0x44>)
 800123e:	685b      	ldr	r3, [r3, #4]
 8001240:	f423 1274 	bic.w	r2, r3, #3997696	; 0x3d0000
 8001244:	687b      	ldr	r3, [r7, #4]
 8001246:	f403 3180 	and.w	r1, r3, #65536	; 0x10000
 800124a:	683b      	ldr	r3, [r7, #0]
 800124c:	430b      	orrs	r3, r1
 800124e:	4313      	orrs	r3, r2
 8001250:	6043      	str	r3, [r0, #4]
  MODIFY_REG(RCC->CFGR2, RCC_CFGR2_PREDIV, (Source & RCC_CFGR2_PREDIV));
 8001252:	4908      	ldr	r1, [pc, #32]	; (8001274 <LL_RCC_PLL_ConfigDomain_SYS+0x44>)
 8001254:	4b07      	ldr	r3, [pc, #28]	; (8001274 <LL_RCC_PLL_ConfigDomain_SYS+0x44>)
 8001256:	6adb      	ldr	r3, [r3, #44]	; 0x2c
 8001258:	f023 020f 	bic.w	r2, r3, #15
 800125c:	687b      	ldr	r3, [r7, #4]
 800125e:	f003 030f 	and.w	r3, r3, #15
 8001262:	4313      	orrs	r3, r2
 8001264:	62cb      	str	r3, [r1, #44]	; 0x2c
}
 8001266:	bf00      	nop
 8001268:	370c      	adds	r7, #12
 800126a:	46bd      	mov	sp, r7
 800126c:	f85d 7b04 	ldr.w	r7, [sp], #4
 8001270:	4770      	bx	lr
 8001272:	bf00      	nop
 8001274:	40021000 	.word	0x40021000

08001278 <LL_APB1_GRP1_EnableClock>:
{
 8001278:	b480      	push	{r7}
 800127a:	b085      	sub	sp, #20
 800127c:	af00      	add	r7, sp, #0
 800127e:	6078      	str	r0, [r7, #4]
  SET_BIT(RCC->APB1ENR, Periphs);
 8001280:	4908      	ldr	r1, [pc, #32]	; (80012a4 <LL_APB1_GRP1_EnableClock+0x2c>)
 8001282:	4b08      	ldr	r3, [pc, #32]	; (80012a4 <LL_APB1_GRP1_EnableClock+0x2c>)
 8001284:	69da      	ldr	r2, [r3, #28]
 8001286:	687b      	ldr	r3, [r7, #4]
 8001288:	4313      	orrs	r3, r2
 800128a:	61cb      	str	r3, [r1, #28]
  tmpreg = READ_BIT(RCC->APB1ENR, Periphs);
 800128c:	4b05      	ldr	r3, [pc, #20]	; (80012a4 <LL_APB1_GRP1_EnableClock+0x2c>)
 800128e:	69da      	ldr	r2, [r3, #28]
 8001290:	687b      	ldr	r3, [r7, #4]
 8001292:	4013      	ands	r3, r2
 8001294:	60fb      	str	r3, [r7, #12]
  (void)tmpreg;
 8001296:	68fb      	ldr	r3, [r7, #12]
}
 8001298:	bf00      	nop
 800129a:	3714      	adds	r7, #20
 800129c:	46bd      	mov	sp, r7
 800129e:	f85d 7b04 	ldr.w	r7, [sp], #4
 80012a2:	4770      	bx	lr
 80012a4:	40021000 	.word	0x40021000

080012a8 <LL_APB2_GRP1_EnableClock>:
  *
  *         (*) value not defined in all devices.
  * @retval None
*/
__STATIC_INLINE void LL_APB2_GRP1_EnableClock(uint32_t Periphs)
{
 80012a8:	b480      	push	{r7}
 80012aa:	b085      	sub	sp, #20
 80012ac:	af00      	add	r7, sp, #0
 80012ae:	6078      	str	r0, [r7, #4]
  __IO uint32_t tmpreg;
  SET_BIT(RCC->APB2ENR, Periphs);
 80012b0:	4908      	ldr	r1, [pc, #32]	; (80012d4 <LL_APB2_GRP1_EnableClock+0x2c>)
 80012b2:	4b08      	ldr	r3, [pc, #32]	; (80012d4 <LL_APB2_GRP1_EnableClock+0x2c>)
 80012b4:	699a      	ldr	r2, [r3, #24]
 80012b6:	687b      	ldr	r3, [r7, #4]
 80012b8:	4313      	orrs	r3, r2
 80012ba:	618b      	str	r3, [r1, #24]
  /* Delay after an RCC peripheral clock enabling */
  tmpreg = READ_BIT(RCC->APB2ENR, Periphs);
 80012bc:	4b05      	ldr	r3, [pc, #20]	; (80012d4 <LL_APB2_GRP1_EnableClock+0x2c>)
 80012be:	699a      	ldr	r2, [r3, #24]
 80012c0:	687b      	ldr	r3, [r7, #4]
 80012c2:	4013      	ands	r3, r2
 80012c4:	60fb      	str	r3, [r7, #12]
  (void)tmpreg;
 80012c6:	68fb      	ldr	r3, [r7, #12]
}
 80012c8:	bf00      	nop
 80012ca:	3714      	adds	r7, #20
 80012cc:	46bd      	mov	sp, r7
 80012ce:	f85d 7b04 	ldr.w	r7, [sp], #4
 80012d2:	4770      	bx	lr
 80012d4:	40021000 	.word	0x40021000

080012d8 <LL_FLASH_SetLatency>:
  *         @arg @ref LL_FLASH_LATENCY_1
  *         @arg @ref LL_FLASH_LATENCY_2
  * @retval None
  */
__STATIC_INLINE void LL_FLASH_SetLatency(uint32_t Latency)
{
 80012d8:	b480      	push	{r7}
 80012da:	b083      	sub	sp, #12
 80012dc:	af00      	add	r7, sp, #0
 80012de:	6078      	str	r0, [r7, #4]
  MODIFY_REG(FLASH->ACR, FLASH_ACR_LATENCY, Latency);
 80012e0:	4906      	ldr	r1, [pc, #24]	; (80012fc <LL_FLASH_SetLatency+0x24>)
 80012e2:	4b06      	ldr	r3, [pc, #24]	; (80012fc <LL_FLASH_SetLatency+0x24>)
 80012e4:	681b      	ldr	r3, [r3, #0]
 80012e6:	f023 0207 	bic.w	r2, r3, #7
 80012ea:	687b      	ldr	r3, [r7, #4]
 80012ec:	4313      	orrs	r3, r2
 80012ee:	600b      	str	r3, [r1, #0]
}
 80012f0:	bf00      	nop
 80012f2:	370c      	adds	r7, #12
 80012f4:	46bd      	mov	sp, r7
 80012f6:	f85d 7b04 	ldr.w	r7, [sp], #4
 80012fa:	4770      	bx	lr
 80012fc:	40022000 	.word	0x40022000

08001300 <LL_FLASH_GetLatency>:
  *         @arg @ref LL_FLASH_LATENCY_0
  *         @arg @ref LL_FLASH_LATENCY_1
  *         @arg @ref LL_FLASH_LATENCY_2
  */
__STATIC_INLINE uint32_t LL_FLASH_GetLatency(void)
{
 8001300:	b480      	push	{r7}
 8001302:	af00      	add	r7, sp, #0
  return (uint32_t)(READ_BIT(FLASH->ACR, FLASH_ACR_LATENCY));
 8001304:	4b04      	ldr	r3, [pc, #16]	; (8001318 <LL_FLASH_GetLatency+0x18>)
 8001306:	681b      	ldr	r3, [r3, #0]
 8001308:	f003 0307 	and.w	r3, r3, #7
}
 800130c:	4618      	mov	r0, r3
 800130e:	46bd      	mov	sp, r7
 8001310:	f85d 7b04 	ldr.w	r7, [sp], #4
 8001314:	4770      	bx	lr
 8001316:	bf00      	nop
 8001318:	40022000 	.word	0x40022000

0800131c <LL_PWR_EnableBkUpAccess>:
  * @brief  Enable access to the backup domain
  * @rmtoll CR    DBP       LL_PWR_EnableBkUpAccess
  * @retval None
  */
__STATIC_INLINE void LL_PWR_EnableBkUpAccess(void)
{
 800131c:	b480      	push	{r7}
 800131e:	af00      	add	r7, sp, #0
  SET_BIT(PWR->CR, PWR_CR_DBP);
 8001320:	4a05      	ldr	r2, [pc, #20]	; (8001338 <LL_PWR_EnableBkUpAccess+0x1c>)
 8001322:	4b05      	ldr	r3, [pc, #20]	; (8001338 <LL_PWR_EnableBkUpAccess+0x1c>)
 8001324:	681b      	ldr	r3, [r3, #0]
 8001326:	f443 7380 	orr.w	r3, r3, #256	; 0x100
 800132a:	6013      	str	r3, [r2, #0]
}
 800132c:	bf00      	nop
 800132e:	46bd      	mov	sp, r7
 8001330:	f85d 7b04 	ldr.w	r7, [sp], #4
 8001334:	4770      	bx	lr
 8001336:	bf00      	nop
 8001338:	40007000 	.word	0x40007000

0800133c <main>:
/**
  * @brief  The application entry point.
  * @retval int
  */
int main(void)
{
 800133c:	b590      	push	{r4, r7, lr}
 800133e:	b087      	sub	sp, #28
 8001340:	af02      	add	r7, sp, #8

  /* MCU Configuration--------------------------------------------------------*/

  /* Reset of all peripherals, Initializes the Flash interface and the Systick. */

  LL_APB2_GRP1_EnableClock(LL_APB2_GRP1_PERIPH_SYSCFG);
 8001342:	2001      	movs	r0, #1
 8001344:	f7ff ffb0 	bl	80012a8 <LL_APB2_GRP1_EnableClock>
  LL_APB1_GRP1_EnableClock(LL_APB1_GRP1_PERIPH_PWR);
 8001348:	f04f 5080 	mov.w	r0, #268435456	; 0x10000000
 800134c:	f7ff ff94 	bl	8001278 <LL_APB1_GRP1_EnableClock>

  NVIC_SetPriorityGrouping(NVIC_PRIORITYGROUP_4);
 8001350:	2003      	movs	r0, #3
 8001352:	f7ff fd85 	bl	8000e60 <__NVIC_SetPriorityGrouping>

  /* System interrupt init*/
  /* SysTick_IRQn interrupt configuration */
  NVIC_SetPriority(SysTick_IRQn, NVIC_EncodePriority(NVIC_GetPriorityGrouping(),15, 0));
 8001356:	f7ff fda7 	bl	8000ea8 <__NVIC_GetPriorityGrouping>
 800135a:	4603      	mov	r3, r0
 800135c:	2200      	movs	r2, #0
 800135e:	210f      	movs	r1, #15
 8001360:	4618      	mov	r0, r3
 8001362:	f7ff fdd9 	bl	8000f18 <NVIC_EncodePriority>
 8001366:	4603      	mov	r3, r0
 8001368:	4619      	mov	r1, r3
 800136a:	f04f 30ff 	mov.w	r0, #4294967295
 800136e:	f7ff fda9 	bl	8000ec4 <__NVIC_SetPriority>
  /* USER CODE BEGIN Init */

  /* USER CODE END Init */

  /* Configure the system clock */
  SystemClock_Config();
 8001372:	f000 f937 	bl	80015e4 <SystemClock_Config>
  /* USER CODE BEGIN SysInit */

  /* USER CODE END SysInit */

  /* Initialize all configured peripherals */
  MX_GPIO_Init();
 8001376:	f7ff f9e5 	bl	8000744 <MX_GPIO_Init>
  /* USER CODE BEGIN 2 */
  HAL_TEMPSen_Init();
 800137a:	f002 ffc9 	bl	8004310 <HAL_TEMPSen_Init>
  HAL_RTC_Init();
 800137e:	f002 ff99 	bl	80042b4 <HAL_RTC_Init>
  HAL_LCD_Init();
 8001382:	f002 fd53 	bl	8003e2c <HAL_LCD_Init>
  HAL_POT_Init();
 8001386:	f002 feeb 	bl	8004160 <HAL_POT_Init>
  /* USER CODE END 2 */

  /* Infinite loop */
  /* USER CODE BEGIN WHILE */

  HAL_LCD_Write_AsciiString(word[iniciando],36,1);
 800138a:	2201      	movs	r2, #1
 800138c:	2124      	movs	r1, #36	; 0x24
 800138e:	487b      	ldr	r0, [pc, #492]	; (800157c <main+0x240>)
 8001390:	f002 fe84 	bl	800409c <HAL_LCD_Write_AsciiString>
  LL_mDelay(1000);
 8001394:	f44f 707a 	mov.w	r0, #1000	; 0x3e8
 8001398:	f002 fcc4 	bl	8003d24 <LL_mDelay>
  HAL_LCD_Clear();
 800139c:	f002 fdbf 	bl	8003f1e <HAL_LCD_Clear>
  while (1)
  {
	  //La temperatura se debe leer en todo momento, por lo que se llama a la funcion de ReadTemperature de la libreria HAL del sensor LM75B
	  Temp = HAL_TEMPSen_ReadTemperature();
 80013a0:	f002 ffbc 	bl	800431c <HAL_TEMPSen_ReadTemperature>
 80013a4:	4603      	mov	r3, r0
 80013a6:	461a      	mov	r2, r3
 80013a8:	4b75      	ldr	r3, [pc, #468]	; (8001580 <main+0x244>)
 80013aa:	701a      	strb	r2, [r3, #0]

	  HAL_Get_ActualTime(&Hora,&Minuto,&Segundo);
 80013ac:	4a75      	ldr	r2, [pc, #468]	; (8001584 <main+0x248>)
 80013ae:	4976      	ldr	r1, [pc, #472]	; (8001588 <main+0x24c>)
 80013b0:	4876      	ldr	r0, [pc, #472]	; (800158c <main+0x250>)
 80013b2:	f002 ff85 	bl	80042c0 <HAL_Get_ActualTime>

	  if (inicio==1){
 80013b6:	4b76      	ldr	r3, [pc, #472]	; (8001590 <main+0x254>)
 80013b8:	f9b3 3000 	ldrsh.w	r3, [r3]
 80013bc:	2b01      	cmp	r3, #1
 80013be:	f040 80a5 	bne.w	800150c <main+0x1d0>
		  if ((Hora-IntervaloAH1) >= IntervaloH1 && (Minuto-IntervaloAM1) >= IntervaloM1 && alarma1==inactive){
 80013c2:	4b72      	ldr	r3, [pc, #456]	; (800158c <main+0x250>)
 80013c4:	781b      	ldrb	r3, [r3, #0]
 80013c6:	461a      	mov	r2, r3
 80013c8:	4b72      	ldr	r3, [pc, #456]	; (8001594 <main+0x258>)
 80013ca:	781b      	ldrb	r3, [r3, #0]
 80013cc:	1ad3      	subs	r3, r2, r3
 80013ce:	4a72      	ldr	r2, [pc, #456]	; (8001598 <main+0x25c>)
 80013d0:	7812      	ldrb	r2, [r2, #0]
 80013d2:	4293      	cmp	r3, r2
 80013d4:	db2c      	blt.n	8001430 <main+0xf4>
 80013d6:	4b6c      	ldr	r3, [pc, #432]	; (8001588 <main+0x24c>)
 80013d8:	781b      	ldrb	r3, [r3, #0]
 80013da:	461a      	mov	r2, r3
 80013dc:	4b6f      	ldr	r3, [pc, #444]	; (800159c <main+0x260>)
 80013de:	781b      	ldrb	r3, [r3, #0]
 80013e0:	1ad3      	subs	r3, r2, r3
 80013e2:	4a6f      	ldr	r2, [pc, #444]	; (80015a0 <main+0x264>)
 80013e4:	7812      	ldrb	r2, [r2, #0]
 80013e6:	4293      	cmp	r3, r2
 80013e8:	db22      	blt.n	8001430 <main+0xf4>
 80013ea:	4b6e      	ldr	r3, [pc, #440]	; (80015a4 <main+0x268>)
 80013ec:	781b      	ldrb	r3, [r3, #0]
 80013ee:	2b00      	cmp	r3, #0
 80013f0:	d11e      	bne.n	8001430 <main+0xf4>
			  HAL_Buzzer_State(1);
 80013f2:	2001      	movs	r0, #1
 80013f4:	f002 fcca 	bl	8003d8c <HAL_Buzzer_State>
			  tiempobuzer = Minuto;
 80013f8:	4b63      	ldr	r3, [pc, #396]	; (8001588 <main+0x24c>)
 80013fa:	781a      	ldrb	r2, [r3, #0]
 80013fc:	4b6a      	ldr	r3, [pc, #424]	; (80015a8 <main+0x26c>)
 80013fe:	701a      	strb	r2, [r3, #0]
			  IntervaloAH1 = Hora;
 8001400:	4b62      	ldr	r3, [pc, #392]	; (800158c <main+0x250>)
 8001402:	781a      	ldrb	r2, [r3, #0]
 8001404:	4b63      	ldr	r3, [pc, #396]	; (8001594 <main+0x258>)
 8001406:	701a      	strb	r2, [r3, #0]
			  IntervaloAM1 = Minuto;
 8001408:	4b5f      	ldr	r3, [pc, #380]	; (8001588 <main+0x24c>)
 800140a:	781a      	ldrb	r2, [r3, #0]
 800140c:	4b63      	ldr	r3, [pc, #396]	; (800159c <main+0x260>)
 800140e:	701a      	strb	r2, [r3, #0]
			  if (inicio2==0){
 8001410:	4b66      	ldr	r3, [pc, #408]	; (80015ac <main+0x270>)
 8001412:	781b      	ldrb	r3, [r3, #0]
 8001414:	2b00      	cmp	r3, #0
 8001416:	d105      	bne.n	8001424 <main+0xe8>
				  first=0;
 8001418:	4b65      	ldr	r3, [pc, #404]	; (80015b0 <main+0x274>)
 800141a:	2200      	movs	r2, #0
 800141c:	801a      	strh	r2, [r3, #0]
				  inicio2=1;
 800141e:	4b63      	ldr	r3, [pc, #396]	; (80015ac <main+0x270>)
 8001420:	2201      	movs	r2, #1
 8001422:	701a      	strb	r2, [r3, #0]
			  }
		  	  EA=E5;
 8001424:	4b63      	ldr	r3, [pc, #396]	; (80015b4 <main+0x278>)
 8001426:	2205      	movs	r2, #5
 8001428:	701a      	strb	r2, [r3, #0]
		  	  alarma1=active;
 800142a:	4b5e      	ldr	r3, [pc, #376]	; (80015a4 <main+0x268>)
 800142c:	2201      	movs	r2, #1
 800142e:	701a      	strb	r2, [r3, #0]
		  }
		  if ((Hora-IntervaloAH2) >= IntervaloH2 && (Minuto-IntervaloAM2) >= IntervaloM2 && alarma2==inactive){
 8001430:	4b56      	ldr	r3, [pc, #344]	; (800158c <main+0x250>)
 8001432:	781b      	ldrb	r3, [r3, #0]
 8001434:	461a      	mov	r2, r3
 8001436:	4b60      	ldr	r3, [pc, #384]	; (80015b8 <main+0x27c>)
 8001438:	781b      	ldrb	r3, [r3, #0]
 800143a:	1ad3      	subs	r3, r2, r3
 800143c:	4a5f      	ldr	r2, [pc, #380]	; (80015bc <main+0x280>)
 800143e:	7812      	ldrb	r2, [r2, #0]
 8001440:	4293      	cmp	r3, r2
 8001442:	db2c      	blt.n	800149e <main+0x162>
 8001444:	4b50      	ldr	r3, [pc, #320]	; (8001588 <main+0x24c>)
 8001446:	781b      	ldrb	r3, [r3, #0]
 8001448:	461a      	mov	r2, r3
 800144a:	4b5d      	ldr	r3, [pc, #372]	; (80015c0 <main+0x284>)
 800144c:	781b      	ldrb	r3, [r3, #0]
 800144e:	1ad3      	subs	r3, r2, r3
 8001450:	4a5c      	ldr	r2, [pc, #368]	; (80015c4 <main+0x288>)
 8001452:	7812      	ldrb	r2, [r2, #0]
 8001454:	4293      	cmp	r3, r2
 8001456:	db22      	blt.n	800149e <main+0x162>
 8001458:	4b5b      	ldr	r3, [pc, #364]	; (80015c8 <main+0x28c>)
 800145a:	781b      	ldrb	r3, [r3, #0]
 800145c:	2b00      	cmp	r3, #0
 800145e:	d11e      	bne.n	800149e <main+0x162>
			  HAL_Buzzer_State(1);
 8001460:	2001      	movs	r0, #1
 8001462:	f002 fc93 	bl	8003d8c <HAL_Buzzer_State>
			  tiempobuzer = Minuto;
 8001466:	4b48      	ldr	r3, [pc, #288]	; (8001588 <main+0x24c>)
 8001468:	781a      	ldrb	r2, [r3, #0]
 800146a:	4b4f      	ldr	r3, [pc, #316]	; (80015a8 <main+0x26c>)
 800146c:	701a      	strb	r2, [r3, #0]
			  IntervaloAH2 = Hora;
 800146e:	4b47      	ldr	r3, [pc, #284]	; (800158c <main+0x250>)
 8001470:	781a      	ldrb	r2, [r3, #0]
 8001472:	4b51      	ldr	r3, [pc, #324]	; (80015b8 <main+0x27c>)
 8001474:	701a      	strb	r2, [r3, #0]
			  IntervaloAM2 = Minuto;
 8001476:	4b44      	ldr	r3, [pc, #272]	; (8001588 <main+0x24c>)
 8001478:	781a      	ldrb	r2, [r3, #0]
 800147a:	4b51      	ldr	r3, [pc, #324]	; (80015c0 <main+0x284>)
 800147c:	701a      	strb	r2, [r3, #0]
			  if (inicio2==0){
 800147e:	4b4b      	ldr	r3, [pc, #300]	; (80015ac <main+0x270>)
 8001480:	781b      	ldrb	r3, [r3, #0]
 8001482:	2b00      	cmp	r3, #0
 8001484:	d105      	bne.n	8001492 <main+0x156>
				  first=0;
 8001486:	4b4a      	ldr	r3, [pc, #296]	; (80015b0 <main+0x274>)
 8001488:	2200      	movs	r2, #0
 800148a:	801a      	strh	r2, [r3, #0]
				  inicio2=1;
 800148c:	4b47      	ldr	r3, [pc, #284]	; (80015ac <main+0x270>)
 800148e:	2201      	movs	r2, #1
 8001490:	701a      	strb	r2, [r3, #0]
			  }
			  EA=E5;
 8001492:	4b48      	ldr	r3, [pc, #288]	; (80015b4 <main+0x278>)
 8001494:	2205      	movs	r2, #5
 8001496:	701a      	strb	r2, [r3, #0]
			  alarma2=active;
 8001498:	4b4b      	ldr	r3, [pc, #300]	; (80015c8 <main+0x28c>)
 800149a:	2201      	movs	r2, #1
 800149c:	701a      	strb	r2, [r3, #0]
		  }
		  if ((Hora-IntervaloAH3) >= IntervaloH3 && (Minuto-IntervaloAM3) >= IntervaloM3 && alarma3==inactive){
 800149e:	4b3b      	ldr	r3, [pc, #236]	; (800158c <main+0x250>)
 80014a0:	781b      	ldrb	r3, [r3, #0]
 80014a2:	461a      	mov	r2, r3
 80014a4:	4b49      	ldr	r3, [pc, #292]	; (80015cc <main+0x290>)
 80014a6:	781b      	ldrb	r3, [r3, #0]
 80014a8:	1ad3      	subs	r3, r2, r3
 80014aa:	4a49      	ldr	r2, [pc, #292]	; (80015d0 <main+0x294>)
 80014ac:	7812      	ldrb	r2, [r2, #0]
 80014ae:	4293      	cmp	r3, r2
 80014b0:	db2c      	blt.n	800150c <main+0x1d0>
 80014b2:	4b35      	ldr	r3, [pc, #212]	; (8001588 <main+0x24c>)
 80014b4:	781b      	ldrb	r3, [r3, #0]
 80014b6:	461a      	mov	r2, r3
 80014b8:	4b46      	ldr	r3, [pc, #280]	; (80015d4 <main+0x298>)
 80014ba:	781b      	ldrb	r3, [r3, #0]
 80014bc:	1ad3      	subs	r3, r2, r3
 80014be:	4a46      	ldr	r2, [pc, #280]	; (80015d8 <main+0x29c>)
 80014c0:	7812      	ldrb	r2, [r2, #0]
 80014c2:	4293      	cmp	r3, r2
 80014c4:	db22      	blt.n	800150c <main+0x1d0>
 80014c6:	4b45      	ldr	r3, [pc, #276]	; (80015dc <main+0x2a0>)
 80014c8:	781b      	ldrb	r3, [r3, #0]
 80014ca:	2b00      	cmp	r3, #0
 80014cc:	d11e      	bne.n	800150c <main+0x1d0>
			  HAL_Buzzer_State(1);
 80014ce:	2001      	movs	r0, #1
 80014d0:	f002 fc5c 	bl	8003d8c <HAL_Buzzer_State>
			  tiempobuzer = Minuto;
 80014d4:	4b2c      	ldr	r3, [pc, #176]	; (8001588 <main+0x24c>)
 80014d6:	781a      	ldrb	r2, [r3, #0]
 80014d8:	4b33      	ldr	r3, [pc, #204]	; (80015a8 <main+0x26c>)
 80014da:	701a      	strb	r2, [r3, #0]
			  IntervaloAH3 = Hora;
 80014dc:	4b2b      	ldr	r3, [pc, #172]	; (800158c <main+0x250>)
 80014de:	781a      	ldrb	r2, [r3, #0]
 80014e0:	4b3a      	ldr	r3, [pc, #232]	; (80015cc <main+0x290>)
 80014e2:	701a      	strb	r2, [r3, #0]
			  IntervaloAM3 = Minuto;
 80014e4:	4b28      	ldr	r3, [pc, #160]	; (8001588 <main+0x24c>)
 80014e6:	781a      	ldrb	r2, [r3, #0]
 80014e8:	4b3a      	ldr	r3, [pc, #232]	; (80015d4 <main+0x298>)
 80014ea:	701a      	strb	r2, [r3, #0]
			  if (inicio2==0){
 80014ec:	4b2f      	ldr	r3, [pc, #188]	; (80015ac <main+0x270>)
 80014ee:	781b      	ldrb	r3, [r3, #0]
 80014f0:	2b00      	cmp	r3, #0
 80014f2:	d105      	bne.n	8001500 <main+0x1c4>
				  first=0;
 80014f4:	4b2e      	ldr	r3, [pc, #184]	; (80015b0 <main+0x274>)
 80014f6:	2200      	movs	r2, #0
 80014f8:	801a      	strh	r2, [r3, #0]
				  inicio2=1;
 80014fa:	4b2c      	ldr	r3, [pc, #176]	; (80015ac <main+0x270>)
 80014fc:	2201      	movs	r2, #1
 80014fe:	701a      	strb	r2, [r3, #0]
			  }
			  EA=E5;
 8001500:	4b2c      	ldr	r3, [pc, #176]	; (80015b4 <main+0x278>)
 8001502:	2205      	movs	r2, #5
 8001504:	701a      	strb	r2, [r3, #0]
			  alarma3=active;
 8001506:	4b35      	ldr	r3, [pc, #212]	; (80015dc <main+0x2a0>)
 8001508:	2201      	movs	r2, #1
 800150a:	701a      	strb	r2, [r3, #0]
		  }
	  }

	  if(Temp >= Temp_limit){
 800150c:	4b1c      	ldr	r3, [pc, #112]	; (8001580 <main+0x244>)
 800150e:	781b      	ldrb	r3, [r3, #0]
 8001510:	2b27      	cmp	r3, #39	; 0x27
 8001512:	d90d      	bls.n	8001530 <main+0x1f4>
		  HAL_Buzzer_State(1);
 8001514:	2001      	movs	r0, #1
 8001516:	f002 fc39 	bl	8003d8c <HAL_Buzzer_State>
		  tiempobuzer = Minuto;
 800151a:	4b1b      	ldr	r3, [pc, #108]	; (8001588 <main+0x24c>)
 800151c:	781a      	ldrb	r2, [r3, #0]
 800151e:	4b22      	ldr	r3, [pc, #136]	; (80015a8 <main+0x26c>)
 8001520:	701a      	strb	r2, [r3, #0]
		  temp_alert = active;
 8001522:	4b2f      	ldr	r3, [pc, #188]	; (80015e0 <main+0x2a4>)
 8001524:	2201      	movs	r2, #1
 8001526:	701a      	strb	r2, [r3, #0]
		  EA = E4;
 8001528:	4b22      	ldr	r3, [pc, #136]	; (80015b4 <main+0x278>)
 800152a:	2204      	movs	r2, #4
 800152c:	701a      	strb	r2, [r3, #0]
 800152e:	e002      	b.n	8001536 <main+0x1fa>
	  }
	  else{
		  temp_alert = inactive;
 8001530:	4b2b      	ldr	r3, [pc, #172]	; (80015e0 <main+0x2a4>)
 8001532:	2200      	movs	r2, #0
 8001534:	701a      	strb	r2, [r3, #0]
	  }

	  short btnu = HAL_JOYSTICK_UpPressed();
 8001536:	f002 fc41 	bl	8003dbc <HAL_JOYSTICK_UpPressed>
 800153a:	4603      	mov	r3, r0
 800153c:	81fb      	strh	r3, [r7, #14]

	 // LL_mDelay(2);
	  short btnd = HAL_JOYSTICK_DownPressed();
 800153e:	f002 fc44 	bl	8003dca <HAL_JOYSTICK_DownPressed>
 8001542:	4603      	mov	r3, r0
 8001544:	81bb      	strh	r3, [r7, #12]
	  //LL_mDelay(2);
	  short btnl = HAL_JOYSTICK_LeftPressed();
 8001546:	f002 fc4e 	bl	8003de6 <HAL_JOYSTICK_LeftPressed>
 800154a:	4603      	mov	r3, r0
 800154c:	817b      	strh	r3, [r7, #10]
	  //LL_mDelay(2);
	  short btnr = HAL_JOYSTICK_RightPressed();
 800154e:	f002 fc43 	bl	8003dd8 <HAL_JOYSTICK_RightPressed>
 8001552:	4603      	mov	r3, r0
 8001554:	813b      	strh	r3, [r7, #8]
	 // LL_mDelay(2);
	  short btnc = HAL_JOYSTICK_CenterPressed();
 8001556:	f002 fc2a 	bl	8003dae <HAL_JOYSTICK_CenterPressed>
 800155a:	4603      	mov	r3, r0
 800155c:	80fb      	strh	r3, [r7, #6]
	  fsm(btnu, btnd, btnl, btnr, btnc);
 800155e:	f9b7 4008 	ldrsh.w	r4, [r7, #8]
 8001562:	f9b7 200a 	ldrsh.w	r2, [r7, #10]
 8001566:	f9b7 100c 	ldrsh.w	r1, [r7, #12]
 800156a:	f9b7 000e 	ldrsh.w	r0, [r7, #14]
 800156e:	f9b7 3006 	ldrsh.w	r3, [r7, #6]
 8001572:	9300      	str	r3, [sp, #0]
 8001574:	4623      	mov	r3, r4
 8001576:	f001 f865 	bl	8002644 <fsm>
  {
 800157a:	e711      	b.n	80013a0 <main+0x64>
 800157c:	20000069 	.word	0x20000069
 8001580:	20000720 	.word	0x20000720
 8001584:	20000741 	.word	0x20000741
 8001588:	20000739 	.word	0x20000739
 800158c:	20000747 	.word	0x20000747
 8001590:	2000071e 	.word	0x2000071e
 8001594:	20000744 	.word	0x20000744
 8001598:	20000740 	.word	0x20000740
 800159c:	2000073b 	.word	0x2000073b
 80015a0:	2000073f 	.word	0x2000073f
 80015a4:	2000073a 	.word	0x2000073a
 80015a8:	20000745 	.word	0x20000745
 80015ac:	20000722 	.word	0x20000722
 80015b0:	2000071c 	.word	0x2000071c
 80015b4:	20000718 	.word	0x20000718
 80015b8:	2000074b 	.word	0x2000074b
 80015bc:	20000742 	.word	0x20000742
 80015c0:	20000746 	.word	0x20000746
 80015c4:	20000743 	.word	0x20000743
 80015c8:	20000748 	.word	0x20000748
 80015cc:	2000074c 	.word	0x2000074c
 80015d0:	20000749 	.word	0x20000749
 80015d4:	2000073c 	.word	0x2000073c
 80015d8:	2000073d 	.word	0x2000073d
 80015dc:	2000073e 	.word	0x2000073e
 80015e0:	20000721 	.word	0x20000721

080015e4 <SystemClock_Config>:
/**
  * @brief System Clock Configuration
  * @retval None
  */
void SystemClock_Config(void)
{
 80015e4:	b580      	push	{r7, lr}
 80015e6:	af00      	add	r7, sp, #0
  LL_FLASH_SetLatency(LL_FLASH_LATENCY_2);
 80015e8:	2002      	movs	r0, #2
 80015ea:	f7ff fe75 	bl	80012d8 <LL_FLASH_SetLatency>
  while(LL_FLASH_GetLatency()!= LL_FLASH_LATENCY_2)
 80015ee:	bf00      	nop
 80015f0:	f7ff fe86 	bl	8001300 <LL_FLASH_GetLatency>
 80015f4:	4603      	mov	r3, r0
 80015f6:	2b02      	cmp	r3, #2
 80015f8:	d1fa      	bne.n	80015f0 <SystemClock_Config+0xc>
  {
  }
  LL_RCC_HSI_Enable();
 80015fa:	f7ff fcbf 	bl	8000f7c <LL_RCC_HSI_Enable>

   /* Wait till HSI is ready */
  while(LL_RCC_HSI_IsReady() != 1)
 80015fe:	bf00      	nop
 8001600:	f7ff fccc 	bl	8000f9c <LL_RCC_HSI_IsReady>
 8001604:	4603      	mov	r3, r0
 8001606:	2b01      	cmp	r3, #1
 8001608:	d1fa      	bne.n	8001600 <SystemClock_Config+0x1c>
  {

  }
  LL_RCC_HSI_SetCalibTrimming(16);
 800160a:	2010      	movs	r0, #16
 800160c:	f7ff fcd8 	bl	8000fc0 <LL_RCC_HSI_SetCalibTrimming>
  LL_RCC_LSI_Enable();
 8001610:	f7ff fcec 	bl	8000fec <LL_RCC_LSI_Enable>

   /* Wait till LSI is ready */
  while(LL_RCC_LSI_IsReady() != 1)
 8001614:	bf00      	nop
 8001616:	f7ff fcf9 	bl	800100c <LL_RCC_LSI_IsReady>
 800161a:	4603      	mov	r3, r0
 800161c:	2b01      	cmp	r3, #1
 800161e:	d1fa      	bne.n	8001616 <SystemClock_Config+0x32>
  {

  }
  LL_PWR_EnableBkUpAccess();
 8001620:	f7ff fe7c 	bl	800131c <LL_PWR_EnableBkUpAccess>
  if(LL_RCC_GetRTCClockSource() != LL_RCC_RTC_CLKSOURCE_LSI)
 8001624:	f7ff fda2 	bl	800116c <LL_RCC_GetRTCClockSource>
 8001628:	4603      	mov	r3, r0
 800162a:	f5b3 7f00 	cmp.w	r3, #512	; 0x200
 800162e:	d007      	beq.n	8001640 <SystemClock_Config+0x5c>
  {
    LL_RCC_ForceBackupDomainReset();
 8001630:	f7ff fdba 	bl	80011a8 <LL_RCC_ForceBackupDomainReset>
    LL_RCC_ReleaseBackupDomainReset();
 8001634:	f7ff fdc8 	bl	80011c8 <LL_RCC_ReleaseBackupDomainReset>
    LL_RCC_SetRTCClockSource(LL_RCC_RTC_CLKSOURCE_LSI);
 8001638:	f44f 7000 	mov.w	r0, #512	; 0x200
 800163c:	f7ff fd82 	bl	8001144 <LL_RCC_SetRTCClockSource>
  }
  LL_RCC_EnableRTC();
 8001640:	f7ff fda2 	bl	8001188 <LL_RCC_EnableRTC>
  LL_RCC_PLL_ConfigDomain_SYS(LL_RCC_PLLSOURCE_HSI_DIV_2, LL_RCC_PLL_MUL_16);
 8001644:	f44f 1160 	mov.w	r1, #3670016	; 0x380000
 8001648:	2000      	movs	r0, #0
 800164a:	f7ff fdf1 	bl	8001230 <LL_RCC_PLL_ConfigDomain_SYS>
  LL_RCC_PLL_Enable();
 800164e:	f7ff fdcb 	bl	80011e8 <LL_RCC_PLL_Enable>

   /* Wait till PLL is ready */
  while(LL_RCC_PLL_IsReady() != 1)
 8001652:	bf00      	nop
 8001654:	f7ff fdd8 	bl	8001208 <LL_RCC_PLL_IsReady>
 8001658:	4603      	mov	r3, r0
 800165a:	2b01      	cmp	r3, #1
 800165c:	d1fa      	bne.n	8001654 <SystemClock_Config+0x70>
  {

  }
  LL_RCC_SetAHBPrescaler(LL_RCC_SYSCLK_DIV_1);
 800165e:	2000      	movs	r0, #0
 8001660:	f7ff fd08 	bl	8001074 <LL_RCC_SetAHBPrescaler>
  LL_RCC_SetAPB1Prescaler(LL_RCC_APB1_DIV_2);
 8001664:	f44f 6080 	mov.w	r0, #1024	; 0x400
 8001668:	f7ff fd18 	bl	800109c <LL_RCC_SetAPB1Prescaler>
  LL_RCC_SetAPB2Prescaler(LL_RCC_APB2_DIV_16);
 800166c:	f44f 5060 	mov.w	r0, #14336	; 0x3800
 8001670:	f7ff fd28 	bl	80010c4 <LL_RCC_SetAPB2Prescaler>
  LL_RCC_SetSysClkSource(LL_RCC_SYS_CLKSOURCE_PLL);
 8001674:	2002      	movs	r0, #2
 8001676:	f7ff fcdb 	bl	8001030 <LL_RCC_SetSysClkSource>

   /* Wait till System clock is ready */
  while(LL_RCC_GetSysClkSource() != LL_RCC_SYS_CLKSOURCE_STATUS_PLL)
 800167a:	bf00      	nop
 800167c:	f7ff fcec 	bl	8001058 <LL_RCC_GetSysClkSource>
 8001680:	4603      	mov	r3, r0
 8001682:	2b08      	cmp	r3, #8
 8001684:	d1fa      	bne.n	800167c <SystemClock_Config+0x98>
  {

  }
  LL_Init1msTick(64000000);
 8001686:	4808      	ldr	r0, [pc, #32]	; (80016a8 <SystemClock_Config+0xc4>)
 8001688:	f002 fb3e 	bl	8003d08 <LL_Init1msTick>
  LL_SetSystemCoreClock(64000000);
 800168c:	4806      	ldr	r0, [pc, #24]	; (80016a8 <SystemClock_Config+0xc4>)
 800168e:	f002 fb6d 	bl	8003d6c <LL_SetSystemCoreClock>
  LL_RCC_SetI2CClockSource(LL_RCC_I2C1_CLKSOURCE_HSI);
 8001692:	f04f 5080 	mov.w	r0, #268435456	; 0x10000000
 8001696:	f7ff fd29 	bl	80010ec <LL_RCC_SetI2CClockSource>
  LL_RCC_SetADCClockSource(LL_RCC_ADC12_CLKSRC_PLL_DIV_1);
 800169a:	f44f 7080 	mov.w	r0, #256	; 0x100
 800169e:	f7ff fd3d 	bl	800111c <LL_RCC_SetADCClockSource>
}
 80016a2:	bf00      	nop
 80016a4:	bd80      	pop	{r7, pc}
 80016a6:	bf00      	nop
 80016a8:	03d09000 	.word	0x03d09000

080016ac <estado_Anterior>:

/* USER CODE BEGIN 4 */
void estado_Anterior(short btnU, short btnD, short btnL, short btnR, short btnC){
 80016ac:	b490      	push	{r4, r7}
 80016ae:	b082      	sub	sp, #8
 80016b0:	af00      	add	r7, sp, #0
 80016b2:	4604      	mov	r4, r0
 80016b4:	4608      	mov	r0, r1
 80016b6:	4611      	mov	r1, r2
 80016b8:	461a      	mov	r2, r3
 80016ba:	4623      	mov	r3, r4
 80016bc:	80fb      	strh	r3, [r7, #6]
 80016be:	4603      	mov	r3, r0
 80016c0:	80bb      	strh	r3, [r7, #4]
 80016c2:	460b      	mov	r3, r1
 80016c4:	807b      	strh	r3, [r7, #2]
 80016c6:	4613      	mov	r3, r2
 80016c8:	803b      	strh	r3, [r7, #0]
	btnUa = btnU;
 80016ca:	4a0a      	ldr	r2, [pc, #40]	; (80016f4 <estado_Anterior+0x48>)
 80016cc:	88fb      	ldrh	r3, [r7, #6]
 80016ce:	8013      	strh	r3, [r2, #0]
	btnDa = btnD;
 80016d0:	4a09      	ldr	r2, [pc, #36]	; (80016f8 <estado_Anterior+0x4c>)
 80016d2:	88bb      	ldrh	r3, [r7, #4]
 80016d4:	8013      	strh	r3, [r2, #0]
	btnLa = btnL;
 80016d6:	4a09      	ldr	r2, [pc, #36]	; (80016fc <estado_Anterior+0x50>)
 80016d8:	887b      	ldrh	r3, [r7, #2]
 80016da:	8013      	strh	r3, [r2, #0]
	btnRa = btnR;
 80016dc:	4a08      	ldr	r2, [pc, #32]	; (8001700 <estado_Anterior+0x54>)
 80016de:	883b      	ldrh	r3, [r7, #0]
 80016e0:	8013      	strh	r3, [r2, #0]
	btnCa = btnC;
 80016e2:	4a08      	ldr	r2, [pc, #32]	; (8001704 <estado_Anterior+0x58>)
 80016e4:	8a3b      	ldrh	r3, [r7, #16]
 80016e6:	8013      	strh	r3, [r2, #0]
}
 80016e8:	bf00      	nop
 80016ea:	3708      	adds	r7, #8
 80016ec:	46bd      	mov	sp, r7
 80016ee:	bc90      	pop	{r4, r7}
 80016f0:	4770      	bx	lr
 80016f2:	bf00      	nop
 80016f4:	2000072c 	.word	0x2000072c
 80016f8:	20000728 	.word	0x20000728
 80016fc:	2000072a 	.word	0x2000072a
 8001700:	20000724 	.word	0x20000724
 8001704:	20000730 	.word	0x20000730

08001708 <EDO_0>:

// Funciones por estado
void EDO_0(short btnU, short btnD, short btnL, short btnR, short btnC){
 8001708:	b590      	push	{r4, r7, lr}
 800170a:	b085      	sub	sp, #20
 800170c:	af02      	add	r7, sp, #8
 800170e:	4604      	mov	r4, r0
 8001710:	4608      	mov	r0, r1
 8001712:	4611      	mov	r1, r2
 8001714:	461a      	mov	r2, r3
 8001716:	4623      	mov	r3, r4
 8001718:	80fb      	strh	r3, [r7, #6]
 800171a:	4603      	mov	r3, r0
 800171c:	80bb      	strh	r3, [r7, #4]
 800171e:	460b      	mov	r3, r1
 8001720:	807b      	strh	r3, [r7, #2]
 8001722:	4613      	mov	r3, r2
 8001724:	803b      	strh	r3, [r7, #0]
	// Configuracion de reloj
	if(first == 0){
 8001726:	4b65      	ldr	r3, [pc, #404]	; (80018bc <EDO_0+0x1b4>)
 8001728:	f9b3 3000 	ldrsh.w	r3, [r3]
 800172c:	2b00      	cmp	r3, #0
 800172e:	d116      	bne.n	800175e <EDO_0+0x56>
		// Mostrado de valores fijos
		HAL_LCD_Write_AsciiString(word[configuracion],24,0);
 8001730:	2200      	movs	r2, #0
 8001732:	2118      	movs	r1, #24
 8001734:	4862      	ldr	r0, [pc, #392]	; (80018c0 <EDO_0+0x1b8>)
 8001736:	f002 fcb1 	bl	800409c <HAL_LCD_Write_AsciiString>
		HAL_LCD_Write_AsciiString(word[reloj],48,1);
 800173a:	2201      	movs	r2, #1
 800173c:	2130      	movs	r1, #48	; 0x30
 800173e:	4861      	ldr	r0, [pc, #388]	; (80018c4 <EDO_0+0x1bc>)
 8001740:	f002 fcac 	bl	800409c <HAL_LCD_Write_AsciiString>
		HAL_LCD_Write_ascii(':',60,2);
 8001744:	2202      	movs	r2, #2
 8001746:	213c      	movs	r1, #60	; 0x3c
 8001748:	203a      	movs	r0, #58	; 0x3a
 800174a:	f002 fc3f 	bl	8003fcc <HAL_LCD_Write_ascii>
		HAL_LCD_Write_AsciiString(word[aceptar],36,3);
 800174e:	2203      	movs	r2, #3
 8001750:	2124      	movs	r1, #36	; 0x24
 8001752:	485d      	ldr	r0, [pc, #372]	; (80018c8 <EDO_0+0x1c0>)
 8001754:	f002 fca2 	bl	800409c <HAL_LCD_Write_AsciiString>
		first = 1;
 8001758:	4b58      	ldr	r3, [pc, #352]	; (80018bc <EDO_0+0x1b4>)
 800175a:	2201      	movs	r2, #1
 800175c:	801a      	strh	r2, [r3, #0]
	}
	Horas = HAL_POT_Percentage(POT1_Channel)*23/100;
 800175e:	2000      	movs	r0, #0
 8001760:	f002 fd20 	bl	80041a4 <HAL_POT_Percentage>
 8001764:	4603      	mov	r3, r0
 8001766:	461a      	mov	r2, r3
 8001768:	4613      	mov	r3, r2
 800176a:	005b      	lsls	r3, r3, #1
 800176c:	4413      	add	r3, r2
 800176e:	00db      	lsls	r3, r3, #3
 8001770:	1a9b      	subs	r3, r3, r2
 8001772:	4a56      	ldr	r2, [pc, #344]	; (80018cc <EDO_0+0x1c4>)
 8001774:	fb82 1203 	smull	r1, r2, r2, r3
 8001778:	1152      	asrs	r2, r2, #5
 800177a:	17db      	asrs	r3, r3, #31
 800177c:	1ad3      	subs	r3, r2, r3
 800177e:	b2da      	uxtb	r2, r3
 8001780:	4b53      	ldr	r3, [pc, #332]	; (80018d0 <EDO_0+0x1c8>)
 8001782:	701a      	strb	r2, [r3, #0]
	Minutos = HAL_POT_Percentage(POT2_Channel)*59/100;
 8001784:	2001      	movs	r0, #1
 8001786:	f002 fd0d 	bl	80041a4 <HAL_POT_Percentage>
 800178a:	4603      	mov	r3, r0
 800178c:	461a      	mov	r2, r3
 800178e:	4613      	mov	r3, r2
 8001790:	011b      	lsls	r3, r3, #4
 8001792:	1a9b      	subs	r3, r3, r2
 8001794:	009b      	lsls	r3, r3, #2
 8001796:	1a9b      	subs	r3, r3, r2
 8001798:	4a4c      	ldr	r2, [pc, #304]	; (80018cc <EDO_0+0x1c4>)
 800179a:	fb82 1203 	smull	r1, r2, r2, r3
 800179e:	1152      	asrs	r2, r2, #5
 80017a0:	17db      	asrs	r3, r3, #31
 80017a2:	1ad3      	subs	r3, r2, r3
 80017a4:	b2da      	uxtb	r2, r3
 80017a6:	4b4b      	ldr	r3, [pc, #300]	; (80018d4 <EDO_0+0x1cc>)
 80017a8:	701a      	strb	r2, [r3, #0]
	HAL_LCD_Write_Number(&Horas,48,2);
 80017aa:	2202      	movs	r2, #2
 80017ac:	2130      	movs	r1, #48	; 0x30
 80017ae:	4848      	ldr	r0, [pc, #288]	; (80018d0 <EDO_0+0x1c8>)
 80017b0:	f002 fca4 	bl	80040fc <HAL_LCD_Write_Number>
	HAL_LCD_Write_Number(&Minutos,67,2);
 80017b4:	2202      	movs	r2, #2
 80017b6:	2143      	movs	r1, #67	; 0x43
 80017b8:	4846      	ldr	r0, [pc, #280]	; (80018d4 <EDO_0+0x1cc>)
 80017ba:	f002 fc9f 	bl	80040fc <HAL_LCD_Write_Number>
	if(btnC == 1 && btnC != btnCa && inicio == 0){
 80017be:	f9b7 3018 	ldrsh.w	r3, [r7, #24]
 80017c2:	2b01      	cmp	r3, #1
 80017c4:	d134      	bne.n	8001830 <EDO_0+0x128>
 80017c6:	4b44      	ldr	r3, [pc, #272]	; (80018d8 <EDO_0+0x1d0>)
 80017c8:	f9b3 3000 	ldrsh.w	r3, [r3]
 80017cc:	f9b7 2018 	ldrsh.w	r2, [r7, #24]
 80017d0:	429a      	cmp	r2, r3
 80017d2:	d02d      	beq.n	8001830 <EDO_0+0x128>
 80017d4:	4b41      	ldr	r3, [pc, #260]	; (80018dc <EDO_0+0x1d4>)
 80017d6:	f9b3 3000 	ldrsh.w	r3, [r3]
 80017da:	2b00      	cmp	r3, #0
 80017dc:	d128      	bne.n	8001830 <EDO_0+0x128>
		// Cambio de estado
		EA = E1;
 80017de:	4b40      	ldr	r3, [pc, #256]	; (80018e0 <EDO_0+0x1d8>)
 80017e0:	2201      	movs	r2, #1
 80017e2:	701a      	strb	r2, [r3, #0]
		first = 0;
 80017e4:	4b35      	ldr	r3, [pc, #212]	; (80018bc <EDO_0+0x1b4>)
 80017e6:	2200      	movs	r2, #0
 80017e8:	801a      	strh	r2, [r3, #0]
		HAL_LCD_Clear();
 80017ea:	f002 fb98 	bl	8003f1e <HAL_LCD_Clear>
		HAL_Set_ActualTime(Horas,Minutos,0);
 80017ee:	4b38      	ldr	r3, [pc, #224]	; (80018d0 <EDO_0+0x1c8>)
 80017f0:	7818      	ldrb	r0, [r3, #0]
 80017f2:	4b38      	ldr	r3, [pc, #224]	; (80018d4 <EDO_0+0x1cc>)
 80017f4:	781b      	ldrb	r3, [r3, #0]
 80017f6:	2200      	movs	r2, #0
 80017f8:	4619      	mov	r1, r3
 80017fa:	f002 fd73 	bl	80042e4 <HAL_Set_ActualTime>
		IntervaloAH1 = Horas;
 80017fe:	4b34      	ldr	r3, [pc, #208]	; (80018d0 <EDO_0+0x1c8>)
 8001800:	781a      	ldrb	r2, [r3, #0]
 8001802:	4b38      	ldr	r3, [pc, #224]	; (80018e4 <EDO_0+0x1dc>)
 8001804:	701a      	strb	r2, [r3, #0]
		IntervaloAH2 = Horas;
 8001806:	4b32      	ldr	r3, [pc, #200]	; (80018d0 <EDO_0+0x1c8>)
 8001808:	781a      	ldrb	r2, [r3, #0]
 800180a:	4b37      	ldr	r3, [pc, #220]	; (80018e8 <EDO_0+0x1e0>)
 800180c:	701a      	strb	r2, [r3, #0]
		IntervaloAH3 = Horas;
 800180e:	4b30      	ldr	r3, [pc, #192]	; (80018d0 <EDO_0+0x1c8>)
 8001810:	781a      	ldrb	r2, [r3, #0]
 8001812:	4b36      	ldr	r3, [pc, #216]	; (80018ec <EDO_0+0x1e4>)
 8001814:	701a      	strb	r2, [r3, #0]
		IntervaloAM1 = Minutos;
 8001816:	4b2f      	ldr	r3, [pc, #188]	; (80018d4 <EDO_0+0x1cc>)
 8001818:	781a      	ldrb	r2, [r3, #0]
 800181a:	4b35      	ldr	r3, [pc, #212]	; (80018f0 <EDO_0+0x1e8>)
 800181c:	701a      	strb	r2, [r3, #0]
		IntervaloAM2 = Minutos;
 800181e:	4b2d      	ldr	r3, [pc, #180]	; (80018d4 <EDO_0+0x1cc>)
 8001820:	781a      	ldrb	r2, [r3, #0]
 8001822:	4b34      	ldr	r3, [pc, #208]	; (80018f4 <EDO_0+0x1ec>)
 8001824:	701a      	strb	r2, [r3, #0]
		IntervaloAM3 = Minutos;
 8001826:	4b2b      	ldr	r3, [pc, #172]	; (80018d4 <EDO_0+0x1cc>)
 8001828:	781a      	ldrb	r2, [r3, #0]
 800182a:	4b33      	ldr	r3, [pc, #204]	; (80018f8 <EDO_0+0x1f0>)
 800182c:	701a      	strb	r2, [r3, #0]
 800182e:	e032      	b.n	8001896 <EDO_0+0x18e>
	}
	else if(btnC == 1 && btnC != btnCa){
 8001830:	f9b7 3018 	ldrsh.w	r3, [r7, #24]
 8001834:	2b01      	cmp	r3, #1
 8001836:	d12e      	bne.n	8001896 <EDO_0+0x18e>
 8001838:	4b27      	ldr	r3, [pc, #156]	; (80018d8 <EDO_0+0x1d0>)
 800183a:	f9b3 3000 	ldrsh.w	r3, [r3]
 800183e:	f9b7 2018 	ldrsh.w	r2, [r7, #24]
 8001842:	429a      	cmp	r2, r3
 8001844:	d027      	beq.n	8001896 <EDO_0+0x18e>
		// Cambio de estado
		EA = E3;
 8001846:	4b26      	ldr	r3, [pc, #152]	; (80018e0 <EDO_0+0x1d8>)
 8001848:	2203      	movs	r2, #3
 800184a:	701a      	strb	r2, [r3, #0]
		first = 0;
 800184c:	4b1b      	ldr	r3, [pc, #108]	; (80018bc <EDO_0+0x1b4>)
 800184e:	2200      	movs	r2, #0
 8001850:	801a      	strh	r2, [r3, #0]
		HAL_LCD_Clear();
 8001852:	f002 fb64 	bl	8003f1e <HAL_LCD_Clear>
		HAL_Set_ActualTime(Horas,Minutos,0);
 8001856:	4b1e      	ldr	r3, [pc, #120]	; (80018d0 <EDO_0+0x1c8>)
 8001858:	7818      	ldrb	r0, [r3, #0]
 800185a:	4b1e      	ldr	r3, [pc, #120]	; (80018d4 <EDO_0+0x1cc>)
 800185c:	781b      	ldrb	r3, [r3, #0]
 800185e:	2200      	movs	r2, #0
 8001860:	4619      	mov	r1, r3
 8001862:	f002 fd3f 	bl	80042e4 <HAL_Set_ActualTime>
		IntervaloAH1 = Horas;
 8001866:	4b1a      	ldr	r3, [pc, #104]	; (80018d0 <EDO_0+0x1c8>)
 8001868:	781a      	ldrb	r2, [r3, #0]
 800186a:	4b1e      	ldr	r3, [pc, #120]	; (80018e4 <EDO_0+0x1dc>)
 800186c:	701a      	strb	r2, [r3, #0]
		IntervaloAH2 = Horas;
 800186e:	4b18      	ldr	r3, [pc, #96]	; (80018d0 <EDO_0+0x1c8>)
 8001870:	781a      	ldrb	r2, [r3, #0]
 8001872:	4b1d      	ldr	r3, [pc, #116]	; (80018e8 <EDO_0+0x1e0>)
 8001874:	701a      	strb	r2, [r3, #0]
		IntervaloAH3 = Horas;
 8001876:	4b16      	ldr	r3, [pc, #88]	; (80018d0 <EDO_0+0x1c8>)
 8001878:	781a      	ldrb	r2, [r3, #0]
 800187a:	4b1c      	ldr	r3, [pc, #112]	; (80018ec <EDO_0+0x1e4>)
 800187c:	701a      	strb	r2, [r3, #0]
		IntervaloAM1 = Minutos;
 800187e:	4b15      	ldr	r3, [pc, #84]	; (80018d4 <EDO_0+0x1cc>)
 8001880:	781a      	ldrb	r2, [r3, #0]
 8001882:	4b1b      	ldr	r3, [pc, #108]	; (80018f0 <EDO_0+0x1e8>)
 8001884:	701a      	strb	r2, [r3, #0]
		IntervaloAM2 = Minutos;
 8001886:	4b13      	ldr	r3, [pc, #76]	; (80018d4 <EDO_0+0x1cc>)
 8001888:	781a      	ldrb	r2, [r3, #0]
 800188a:	4b1a      	ldr	r3, [pc, #104]	; (80018f4 <EDO_0+0x1ec>)
 800188c:	701a      	strb	r2, [r3, #0]
		IntervaloAM3 = Minutos;
 800188e:	4b11      	ldr	r3, [pc, #68]	; (80018d4 <EDO_0+0x1cc>)
 8001890:	781a      	ldrb	r2, [r3, #0]
 8001892:	4b19      	ldr	r3, [pc, #100]	; (80018f8 <EDO_0+0x1f0>)
 8001894:	701a      	strb	r2, [r3, #0]
	}
	estado_Anterior(btnU, btnD, btnL, btnR, btnC);
 8001896:	f9b7 4000 	ldrsh.w	r4, [r7]
 800189a:	f9b7 2002 	ldrsh.w	r2, [r7, #2]
 800189e:	f9b7 1004 	ldrsh.w	r1, [r7, #4]
 80018a2:	f9b7 0006 	ldrsh.w	r0, [r7, #6]
 80018a6:	f9b7 3018 	ldrsh.w	r3, [r7, #24]
 80018aa:	9300      	str	r3, [sp, #0]
 80018ac:	4623      	mov	r3, r4
 80018ae:	f7ff fefd 	bl	80016ac <estado_Anterior>
}
 80018b2:	bf00      	nop
 80018b4:	370c      	adds	r7, #12
 80018b6:	46bd      	mov	sp, r7
 80018b8:	bd90      	pop	{r4, r7, pc}
 80018ba:	bf00      	nop
 80018bc:	2000071c 	.word	0x2000071c
 80018c0:	20000000 	.word	0x20000000
 80018c4:	20000015 	.word	0x20000015
 80018c8:	2000002a 	.word	0x2000002a
 80018cc:	51eb851f 	.word	0x51eb851f
 80018d0:	2000074a 	.word	0x2000074a
 80018d4:	20000738 	.word	0x20000738
 80018d8:	20000730 	.word	0x20000730
 80018dc:	2000071e 	.word	0x2000071e
 80018e0:	20000718 	.word	0x20000718
 80018e4:	20000744 	.word	0x20000744
 80018e8:	2000074b 	.word	0x2000074b
 80018ec:	2000074c 	.word	0x2000074c
 80018f0:	2000073b 	.word	0x2000073b
 80018f4:	20000746 	.word	0x20000746
 80018f8:	2000073c 	.word	0x2000073c

080018fc <EDO_1>:

void EDO_1(short btnU, short btnD, short btnL, short btnR, short btnC){
 80018fc:	b590      	push	{r4, r7, lr}
 80018fe:	b085      	sub	sp, #20
 8001900:	af02      	add	r7, sp, #8
 8001902:	4604      	mov	r4, r0
 8001904:	4608      	mov	r0, r1
 8001906:	4611      	mov	r1, r2
 8001908:	461a      	mov	r2, r3
 800190a:	4623      	mov	r3, r4
 800190c:	80fb      	strh	r3, [r7, #6]
 800190e:	4603      	mov	r3, r0
 8001910:	80bb      	strh	r3, [r7, #4]
 8001912:	460b      	mov	r3, r1
 8001914:	807b      	strh	r3, [r7, #2]
 8001916:	4613      	mov	r3, r2
 8001918:	803b      	strh	r3, [r7, #0]
	// Configuracion pastillas
	if(first == 0){
 800191a:	4bbc      	ldr	r3, [pc, #752]	; (8001c0c <EDO_1+0x310>)
 800191c:	f9b3 3000 	ldrsh.w	r3, [r3]
 8001920:	2b00      	cmp	r3, #0
 8001922:	d125      	bne.n	8001970 <EDO_1+0x74>
		// Mostrado de valores fijos
		HAL_LCD_Write_AsciiString(word[pastillasABC],18,0);
 8001924:	2200      	movs	r2, #0
 8001926:	2112      	movs	r1, #18
 8001928:	48b9      	ldr	r0, [pc, #740]	; (8001c10 <EDO_1+0x314>)
 800192a:	f002 fbb7 	bl	800409c <HAL_LCD_Write_AsciiString>
		HAL_LCD_Write_AsciiString(word[intervalo],36,1);
 800192e:	2201      	movs	r2, #1
 8001930:	2124      	movs	r1, #36	; 0x24
 8001932:	48b8      	ldr	r0, [pc, #736]	; (8001c14 <EDO_1+0x318>)
 8001934:	f002 fbb2 	bl	800409c <HAL_LCD_Write_AsciiString>
		HAL_LCD_Write_ascii(':',60,2);
 8001938:	2202      	movs	r2, #2
 800193a:	213c      	movs	r1, #60	; 0x3c
 800193c:	203a      	movs	r0, #58	; 0x3a
 800193e:	f002 fb45 	bl	8003fcc <HAL_LCD_Write_ascii>
		HAL_LCD_Write_AsciiString(word[aceptar],36,3);
 8001942:	2203      	movs	r2, #3
 8001944:	2124      	movs	r1, #36	; 0x24
 8001946:	48b4      	ldr	r0, [pc, #720]	; (8001c18 <EDO_1+0x31c>)
 8001948:	f002 fba8 	bl	800409c <HAL_LCD_Write_AsciiString>
		// > en A la primera vez
		HAL_LCD_Write_ascii('>',72,0);
 800194c:	2200      	movs	r2, #0
 800194e:	2148      	movs	r1, #72	; 0x48
 8001950:	203e      	movs	r0, #62	; 0x3e
 8001952:	f002 fb3b 	bl	8003fcc <HAL_LCD_Write_ascii>
		HAL_LCD_Write_ascii(' ',84,0);
 8001956:	2200      	movs	r2, #0
 8001958:	2154      	movs	r1, #84	; 0x54
 800195a:	2020      	movs	r0, #32
 800195c:	f002 fb36 	bl	8003fcc <HAL_LCD_Write_ascii>
		HAL_LCD_Write_ascii(' ',96,0);
 8001960:	2200      	movs	r2, #0
 8001962:	2160      	movs	r1, #96	; 0x60
 8001964:	2020      	movs	r0, #32
 8001966:	f002 fb31 	bl	8003fcc <HAL_LCD_Write_ascii>
		first = 1;
 800196a:	4ba8      	ldr	r3, [pc, #672]	; (8001c0c <EDO_1+0x310>)
 800196c:	2201      	movs	r2, #1
 800196e:	801a      	strh	r2, [r3, #0]
	}
	// Obtencion horas y minutos
	Horas = HAL_POT_Percentage(POT1_Channel)*23/100;
 8001970:	2000      	movs	r0, #0
 8001972:	f002 fc17 	bl	80041a4 <HAL_POT_Percentage>
 8001976:	4603      	mov	r3, r0
 8001978:	461a      	mov	r2, r3
 800197a:	4613      	mov	r3, r2
 800197c:	005b      	lsls	r3, r3, #1
 800197e:	4413      	add	r3, r2
 8001980:	00db      	lsls	r3, r3, #3
 8001982:	1a9b      	subs	r3, r3, r2
 8001984:	4aa5      	ldr	r2, [pc, #660]	; (8001c1c <EDO_1+0x320>)
 8001986:	fb82 1203 	smull	r1, r2, r2, r3
 800198a:	1152      	asrs	r2, r2, #5
 800198c:	17db      	asrs	r3, r3, #31
 800198e:	1ad3      	subs	r3, r2, r3
 8001990:	b2da      	uxtb	r2, r3
 8001992:	4ba3      	ldr	r3, [pc, #652]	; (8001c20 <EDO_1+0x324>)
 8001994:	701a      	strb	r2, [r3, #0]
	Minutos = HAL_POT_Percentage(POT2_Channel)*59/100;
 8001996:	2001      	movs	r0, #1
 8001998:	f002 fc04 	bl	80041a4 <HAL_POT_Percentage>
 800199c:	4603      	mov	r3, r0
 800199e:	461a      	mov	r2, r3
 80019a0:	4613      	mov	r3, r2
 80019a2:	011b      	lsls	r3, r3, #4
 80019a4:	1a9b      	subs	r3, r3, r2
 80019a6:	009b      	lsls	r3, r3, #2
 80019a8:	1a9b      	subs	r3, r3, r2
 80019aa:	4a9c      	ldr	r2, [pc, #624]	; (8001c1c <EDO_1+0x320>)
 80019ac:	fb82 1203 	smull	r1, r2, r2, r3
 80019b0:	1152      	asrs	r2, r2, #5
 80019b2:	17db      	asrs	r3, r3, #31
 80019b4:	1ad3      	subs	r3, r2, r3
 80019b6:	b2da      	uxtb	r2, r3
 80019b8:	4b9a      	ldr	r3, [pc, #616]	; (8001c24 <EDO_1+0x328>)
 80019ba:	701a      	strb	r2, [r3, #0]
	// Mostrado valor seleccionado
	HAL_LCD_Write_Number(&Horas,48,2);
 80019bc:	2202      	movs	r2, #2
 80019be:	2130      	movs	r1, #48	; 0x30
 80019c0:	4897      	ldr	r0, [pc, #604]	; (8001c20 <EDO_1+0x324>)
 80019c2:	f002 fb9b 	bl	80040fc <HAL_LCD_Write_Number>
	HAL_LCD_Write_Number(&Minutos,67,2);
 80019c6:	2202      	movs	r2, #2
 80019c8:	2143      	movs	r1, #67	; 0x43
 80019ca:	4896      	ldr	r0, [pc, #600]	; (8001c24 <EDO_1+0x328>)
 80019cc:	f002 fb96 	bl	80040fc <HAL_LCD_Write_Number>

	if(Puntero == 0){
 80019d0:	4b95      	ldr	r3, [pc, #596]	; (8001c28 <EDO_1+0x32c>)
 80019d2:	f9b3 3000 	ldrsh.w	r3, [r3]
 80019d6:	2b00      	cmp	r3, #0
 80019d8:	d108      	bne.n	80019ec <EDO_1+0xf0>
		// Si el puntero esta en A carga los valores a A
		IntervaloH1 = Horas;
 80019da:	4b91      	ldr	r3, [pc, #580]	; (8001c20 <EDO_1+0x324>)
 80019dc:	781a      	ldrb	r2, [r3, #0]
 80019de:	4b93      	ldr	r3, [pc, #588]	; (8001c2c <EDO_1+0x330>)
 80019e0:	701a      	strb	r2, [r3, #0]
		IntervaloM1 = Minutos;
 80019e2:	4b90      	ldr	r3, [pc, #576]	; (8001c24 <EDO_1+0x328>)
 80019e4:	781a      	ldrb	r2, [r3, #0]
 80019e6:	4b92      	ldr	r3, [pc, #584]	; (8001c30 <EDO_1+0x334>)
 80019e8:	701a      	strb	r2, [r3, #0]
 80019ea:	e01a      	b.n	8001a22 <EDO_1+0x126>
	}
	else if(Puntero == 1){
 80019ec:	4b8e      	ldr	r3, [pc, #568]	; (8001c28 <EDO_1+0x32c>)
 80019ee:	f9b3 3000 	ldrsh.w	r3, [r3]
 80019f2:	2b01      	cmp	r3, #1
 80019f4:	d108      	bne.n	8001a08 <EDO_1+0x10c>
		// Si el puntero esta en B carga los valores a B
		IntervaloH2 = Horas;
 80019f6:	4b8a      	ldr	r3, [pc, #552]	; (8001c20 <EDO_1+0x324>)
 80019f8:	781a      	ldrb	r2, [r3, #0]
 80019fa:	4b8e      	ldr	r3, [pc, #568]	; (8001c34 <EDO_1+0x338>)
 80019fc:	701a      	strb	r2, [r3, #0]
		IntervaloM2 = Minutos;
 80019fe:	4b89      	ldr	r3, [pc, #548]	; (8001c24 <EDO_1+0x328>)
 8001a00:	781a      	ldrb	r2, [r3, #0]
 8001a02:	4b8d      	ldr	r3, [pc, #564]	; (8001c38 <EDO_1+0x33c>)
 8001a04:	701a      	strb	r2, [r3, #0]
 8001a06:	e00c      	b.n	8001a22 <EDO_1+0x126>
	}
	else if(Puntero == 2){
 8001a08:	4b87      	ldr	r3, [pc, #540]	; (8001c28 <EDO_1+0x32c>)
 8001a0a:	f9b3 3000 	ldrsh.w	r3, [r3]
 8001a0e:	2b02      	cmp	r3, #2
 8001a10:	d107      	bne.n	8001a22 <EDO_1+0x126>
		// Si el puntero esta en C carga los valores a C
		IntervaloH3 = Horas;
 8001a12:	4b83      	ldr	r3, [pc, #524]	; (8001c20 <EDO_1+0x324>)
 8001a14:	781a      	ldrb	r2, [r3, #0]
 8001a16:	4b89      	ldr	r3, [pc, #548]	; (8001c3c <EDO_1+0x340>)
 8001a18:	701a      	strb	r2, [r3, #0]
		IntervaloM3 = Minutos;
 8001a1a:	4b82      	ldr	r3, [pc, #520]	; (8001c24 <EDO_1+0x328>)
 8001a1c:	781a      	ldrb	r2, [r3, #0]
 8001a1e:	4b88      	ldr	r3, [pc, #544]	; (8001c40 <EDO_1+0x344>)
 8001a20:	701a      	strb	r2, [r3, #0]
	}
	// Puntero
	if(btnL == 1 && btnL != btnLa && btnR == 0){
 8001a22:	f9b7 3002 	ldrsh.w	r3, [r7, #2]
 8001a26:	2b01      	cmp	r3, #1
 8001a28:	d156      	bne.n	8001ad8 <EDO_1+0x1dc>
 8001a2a:	4b86      	ldr	r3, [pc, #536]	; (8001c44 <EDO_1+0x348>)
 8001a2c:	f9b3 3000 	ldrsh.w	r3, [r3]
 8001a30:	f9b7 2002 	ldrsh.w	r2, [r7, #2]
 8001a34:	429a      	cmp	r2, r3
 8001a36:	d04f      	beq.n	8001ad8 <EDO_1+0x1dc>
 8001a38:	f9b7 3000 	ldrsh.w	r3, [r7]
 8001a3c:	2b00      	cmp	r3, #0
 8001a3e:	d14b      	bne.n	8001ad8 <EDO_1+0x1dc>
		Puntero -= 1;
 8001a40:	4b79      	ldr	r3, [pc, #484]	; (8001c28 <EDO_1+0x32c>)
 8001a42:	f9b3 3000 	ldrsh.w	r3, [r3]
 8001a46:	b29b      	uxth	r3, r3
 8001a48:	3b01      	subs	r3, #1
 8001a4a:	b29b      	uxth	r3, r3
 8001a4c:	b21a      	sxth	r2, r3
 8001a4e:	4b76      	ldr	r3, [pc, #472]	; (8001c28 <EDO_1+0x32c>)
 8001a50:	801a      	strh	r2, [r3, #0]
		if (Puntero < 0)
 8001a52:	4b75      	ldr	r3, [pc, #468]	; (8001c28 <EDO_1+0x32c>)
 8001a54:	f9b3 3000 	ldrsh.w	r3, [r3]
 8001a58:	2b00      	cmp	r3, #0
 8001a5a:	da02      	bge.n	8001a62 <EDO_1+0x166>
			Puntero = 2;
 8001a5c:	4b72      	ldr	r3, [pc, #456]	; (8001c28 <EDO_1+0x32c>)
 8001a5e:	2202      	movs	r2, #2
 8001a60:	801a      	strh	r2, [r3, #0]
		switch (Puntero){
 8001a62:	4b71      	ldr	r3, [pc, #452]	; (8001c28 <EDO_1+0x32c>)
 8001a64:	f9b3 3000 	ldrsh.w	r3, [r3]
 8001a68:	2b01      	cmp	r3, #1
 8001a6a:	d014      	beq.n	8001a96 <EDO_1+0x19a>
 8001a6c:	2b02      	cmp	r3, #2
 8001a6e:	d022      	beq.n	8001ab6 <EDO_1+0x1ba>
 8001a70:	2b00      	cmp	r3, #0
 8001a72:	d000      	beq.n	8001a76 <EDO_1+0x17a>
				HAL_LCD_Write_ascii(' ',72,0);
				HAL_LCD_Write_ascii(' ',84,0);
				HAL_LCD_Write_ascii('>',96,0);
				break;
		}
	}
 8001a74:	e089      	b.n	8001b8a <EDO_1+0x28e>
				HAL_LCD_Write_ascii('>',72,0);
 8001a76:	2200      	movs	r2, #0
 8001a78:	2148      	movs	r1, #72	; 0x48
 8001a7a:	203e      	movs	r0, #62	; 0x3e
 8001a7c:	f002 faa6 	bl	8003fcc <HAL_LCD_Write_ascii>
				HAL_LCD_Write_ascii(' ',84,0);
 8001a80:	2200      	movs	r2, #0
 8001a82:	2154      	movs	r1, #84	; 0x54
 8001a84:	2020      	movs	r0, #32
 8001a86:	f002 faa1 	bl	8003fcc <HAL_LCD_Write_ascii>
				HAL_LCD_Write_ascii(' ',96,0);
 8001a8a:	2200      	movs	r2, #0
 8001a8c:	2160      	movs	r1, #96	; 0x60
 8001a8e:	2020      	movs	r0, #32
 8001a90:	f002 fa9c 	bl	8003fcc <HAL_LCD_Write_ascii>
				break;
 8001a94:	e01f      	b.n	8001ad6 <EDO_1+0x1da>
				HAL_LCD_Write_ascii(' ',72,0);
 8001a96:	2200      	movs	r2, #0
 8001a98:	2148      	movs	r1, #72	; 0x48
 8001a9a:	2020      	movs	r0, #32
 8001a9c:	f002 fa96 	bl	8003fcc <HAL_LCD_Write_ascii>
				HAL_LCD_Write_ascii('>',84,0);
 8001aa0:	2200      	movs	r2, #0
 8001aa2:	2154      	movs	r1, #84	; 0x54
 8001aa4:	203e      	movs	r0, #62	; 0x3e
 8001aa6:	f002 fa91 	bl	8003fcc <HAL_LCD_Write_ascii>
				HAL_LCD_Write_ascii(' ',96,0);
 8001aaa:	2200      	movs	r2, #0
 8001aac:	2160      	movs	r1, #96	; 0x60
 8001aae:	2020      	movs	r0, #32
 8001ab0:	f002 fa8c 	bl	8003fcc <HAL_LCD_Write_ascii>
				break;
 8001ab4:	e00f      	b.n	8001ad6 <EDO_1+0x1da>
				HAL_LCD_Write_ascii(' ',72,0);
 8001ab6:	2200      	movs	r2, #0
 8001ab8:	2148      	movs	r1, #72	; 0x48
 8001aba:	2020      	movs	r0, #32
 8001abc:	f002 fa86 	bl	8003fcc <HAL_LCD_Write_ascii>
				HAL_LCD_Write_ascii(' ',84,0);
 8001ac0:	2200      	movs	r2, #0
 8001ac2:	2154      	movs	r1, #84	; 0x54
 8001ac4:	2020      	movs	r0, #32
 8001ac6:	f002 fa81 	bl	8003fcc <HAL_LCD_Write_ascii>
				HAL_LCD_Write_ascii('>',96,0);
 8001aca:	2200      	movs	r2, #0
 8001acc:	2160      	movs	r1, #96	; 0x60
 8001ace:	203e      	movs	r0, #62	; 0x3e
 8001ad0:	f002 fa7c 	bl	8003fcc <HAL_LCD_Write_ascii>
				break;
 8001ad4:	bf00      	nop
	}
 8001ad6:	e058      	b.n	8001b8a <EDO_1+0x28e>
	else if(btnR == 1 && btnR != btnRa && btnL == 0){
 8001ad8:	f9b7 3000 	ldrsh.w	r3, [r7]
 8001adc:	2b01      	cmp	r3, #1
 8001ade:	d154      	bne.n	8001b8a <EDO_1+0x28e>
 8001ae0:	4b59      	ldr	r3, [pc, #356]	; (8001c48 <EDO_1+0x34c>)
 8001ae2:	f9b3 3000 	ldrsh.w	r3, [r3]
 8001ae6:	f9b7 2000 	ldrsh.w	r2, [r7]
 8001aea:	429a      	cmp	r2, r3
 8001aec:	d04d      	beq.n	8001b8a <EDO_1+0x28e>
 8001aee:	f9b7 3002 	ldrsh.w	r3, [r7, #2]
 8001af2:	2b00      	cmp	r3, #0
 8001af4:	d149      	bne.n	8001b8a <EDO_1+0x28e>
		Puntero += 1;
 8001af6:	4b4c      	ldr	r3, [pc, #304]	; (8001c28 <EDO_1+0x32c>)
 8001af8:	f9b3 3000 	ldrsh.w	r3, [r3]
 8001afc:	b29b      	uxth	r3, r3
 8001afe:	3301      	adds	r3, #1
 8001b00:	b29b      	uxth	r3, r3
 8001b02:	b21a      	sxth	r2, r3
 8001b04:	4b48      	ldr	r3, [pc, #288]	; (8001c28 <EDO_1+0x32c>)
 8001b06:	801a      	strh	r2, [r3, #0]
		if (Puntero > 2)
 8001b08:	4b47      	ldr	r3, [pc, #284]	; (8001c28 <EDO_1+0x32c>)
 8001b0a:	f9b3 3000 	ldrsh.w	r3, [r3]
 8001b0e:	2b02      	cmp	r3, #2
 8001b10:	dd02      	ble.n	8001b18 <EDO_1+0x21c>
			Puntero = 0;
 8001b12:	4b45      	ldr	r3, [pc, #276]	; (8001c28 <EDO_1+0x32c>)
 8001b14:	2200      	movs	r2, #0
 8001b16:	801a      	strh	r2, [r3, #0]
		switch (Puntero){
 8001b18:	4b43      	ldr	r3, [pc, #268]	; (8001c28 <EDO_1+0x32c>)
 8001b1a:	f9b3 3000 	ldrsh.w	r3, [r3]
 8001b1e:	2b01      	cmp	r3, #1
 8001b20:	d013      	beq.n	8001b4a <EDO_1+0x24e>
 8001b22:	2b02      	cmp	r3, #2
 8001b24:	d021      	beq.n	8001b6a <EDO_1+0x26e>
 8001b26:	2b00      	cmp	r3, #0
 8001b28:	d12f      	bne.n	8001b8a <EDO_1+0x28e>
			case 0:
				HAL_LCD_Write_ascii('>',72,0);
 8001b2a:	2200      	movs	r2, #0
 8001b2c:	2148      	movs	r1, #72	; 0x48
 8001b2e:	203e      	movs	r0, #62	; 0x3e
 8001b30:	f002 fa4c 	bl	8003fcc <HAL_LCD_Write_ascii>
				HAL_LCD_Write_ascii(' ',84,0);
 8001b34:	2200      	movs	r2, #0
 8001b36:	2154      	movs	r1, #84	; 0x54
 8001b38:	2020      	movs	r0, #32
 8001b3a:	f002 fa47 	bl	8003fcc <HAL_LCD_Write_ascii>
				HAL_LCD_Write_ascii(' ',96,0);
 8001b3e:	2200      	movs	r2, #0
 8001b40:	2160      	movs	r1, #96	; 0x60
 8001b42:	2020      	movs	r0, #32
 8001b44:	f002 fa42 	bl	8003fcc <HAL_LCD_Write_ascii>
				break;
 8001b48:	e01f      	b.n	8001b8a <EDO_1+0x28e>
			case 1:
				HAL_LCD_Write_ascii(' ',72,0);
 8001b4a:	2200      	movs	r2, #0
 8001b4c:	2148      	movs	r1, #72	; 0x48
 8001b4e:	2020      	movs	r0, #32
 8001b50:	f002 fa3c 	bl	8003fcc <HAL_LCD_Write_ascii>
				HAL_LCD_Write_ascii('>',84,0);
 8001b54:	2200      	movs	r2, #0
 8001b56:	2154      	movs	r1, #84	; 0x54
 8001b58:	203e      	movs	r0, #62	; 0x3e
 8001b5a:	f002 fa37 	bl	8003fcc <HAL_LCD_Write_ascii>
				HAL_LCD_Write_ascii(' ',96,0);
 8001b5e:	2200      	movs	r2, #0
 8001b60:	2160      	movs	r1, #96	; 0x60
 8001b62:	2020      	movs	r0, #32
 8001b64:	f002 fa32 	bl	8003fcc <HAL_LCD_Write_ascii>
				break;
 8001b68:	e00f      	b.n	8001b8a <EDO_1+0x28e>
			case 2:
				HAL_LCD_Write_ascii(' ',72,0);
 8001b6a:	2200      	movs	r2, #0
 8001b6c:	2148      	movs	r1, #72	; 0x48
 8001b6e:	2020      	movs	r0, #32
 8001b70:	f002 fa2c 	bl	8003fcc <HAL_LCD_Write_ascii>
				HAL_LCD_Write_ascii(' ',84,0);
 8001b74:	2200      	movs	r2, #0
 8001b76:	2154      	movs	r1, #84	; 0x54
 8001b78:	2020      	movs	r0, #32
 8001b7a:	f002 fa27 	bl	8003fcc <HAL_LCD_Write_ascii>
				HAL_LCD_Write_ascii('>',96,0);
 8001b7e:	2200      	movs	r2, #0
 8001b80:	2160      	movs	r1, #96	; 0x60
 8001b82:	203e      	movs	r0, #62	; 0x3e
 8001b84:	f002 fa22 	bl	8003fcc <HAL_LCD_Write_ascii>
				break;
 8001b88:	bf00      	nop
		}
	}


	// Aceptar
	if(btnC == 1 && btnC != btnCa && inicio == 0){
 8001b8a:	f9b7 3018 	ldrsh.w	r3, [r7, #24]
 8001b8e:	2b01      	cmp	r3, #1
 8001b90:	d117      	bne.n	8001bc2 <EDO_1+0x2c6>
 8001b92:	4b2e      	ldr	r3, [pc, #184]	; (8001c4c <EDO_1+0x350>)
 8001b94:	f9b3 3000 	ldrsh.w	r3, [r3]
 8001b98:	f9b7 2018 	ldrsh.w	r2, [r7, #24]
 8001b9c:	429a      	cmp	r2, r3
 8001b9e:	d010      	beq.n	8001bc2 <EDO_1+0x2c6>
 8001ba0:	4b2b      	ldr	r3, [pc, #172]	; (8001c50 <EDO_1+0x354>)
 8001ba2:	f9b3 3000 	ldrsh.w	r3, [r3]
 8001ba6:	2b00      	cmp	r3, #0
 8001ba8:	d10b      	bne.n	8001bc2 <EDO_1+0x2c6>
		// Cambio de estado
		EA = E2;
 8001baa:	4b2a      	ldr	r3, [pc, #168]	; (8001c54 <EDO_1+0x358>)
 8001bac:	2202      	movs	r2, #2
 8001bae:	701a      	strb	r2, [r3, #0]
		first = 0;
 8001bb0:	4b16      	ldr	r3, [pc, #88]	; (8001c0c <EDO_1+0x310>)
 8001bb2:	2200      	movs	r2, #0
 8001bb4:	801a      	strh	r2, [r3, #0]
		inicio = 1; //cambio, se setea en 0 cuando entramos a imprimir
 8001bb6:	4b26      	ldr	r3, [pc, #152]	; (8001c50 <EDO_1+0x354>)
 8001bb8:	2201      	movs	r2, #1
 8001bba:	801a      	strh	r2, [r3, #0]
		HAL_LCD_Clear();
 8001bbc:	f002 f9af 	bl	8003f1e <HAL_LCD_Clear>
 8001bc0:	e012      	b.n	8001be8 <EDO_1+0x2ec>
	}
	else if(btnC == 1 && btnC != btnCa){
 8001bc2:	f9b7 3018 	ldrsh.w	r3, [r7, #24]
 8001bc6:	2b01      	cmp	r3, #1
 8001bc8:	d10e      	bne.n	8001be8 <EDO_1+0x2ec>
 8001bca:	4b20      	ldr	r3, [pc, #128]	; (8001c4c <EDO_1+0x350>)
 8001bcc:	f9b3 3000 	ldrsh.w	r3, [r3]
 8001bd0:	f9b7 2018 	ldrsh.w	r2, [r7, #24]
 8001bd4:	429a      	cmp	r2, r3
 8001bd6:	d007      	beq.n	8001be8 <EDO_1+0x2ec>
		// Cambio de estado
		EA = E3;
 8001bd8:	4b1e      	ldr	r3, [pc, #120]	; (8001c54 <EDO_1+0x358>)
 8001bda:	2203      	movs	r2, #3
 8001bdc:	701a      	strb	r2, [r3, #0]
		first = 0;
 8001bde:	4b0b      	ldr	r3, [pc, #44]	; (8001c0c <EDO_1+0x310>)
 8001be0:	2200      	movs	r2, #0
 8001be2:	801a      	strh	r2, [r3, #0]
		HAL_LCD_Clear();
 8001be4:	f002 f99b 	bl	8003f1e <HAL_LCD_Clear>
	}
	estado_Anterior(btnU, btnD, btnL, btnR, btnC);
 8001be8:	f9b7 4000 	ldrsh.w	r4, [r7]
 8001bec:	f9b7 2002 	ldrsh.w	r2, [r7, #2]
 8001bf0:	f9b7 1004 	ldrsh.w	r1, [r7, #4]
 8001bf4:	f9b7 0006 	ldrsh.w	r0, [r7, #6]
 8001bf8:	f9b7 3018 	ldrsh.w	r3, [r7, #24]
 8001bfc:	9300      	str	r3, [sp, #0]
 8001bfe:	4623      	mov	r3, r4
 8001c00:	f7ff fd54 	bl	80016ac <estado_Anterior>
}
 8001c04:	bf00      	nop
 8001c06:	370c      	adds	r7, #12
 8001c08:	46bd      	mov	sp, r7
 8001c0a:	bd90      	pop	{r4, r7, pc}
 8001c0c:	2000071c 	.word	0x2000071c
 8001c10:	2000003f 	.word	0x2000003f
 8001c14:	20000054 	.word	0x20000054
 8001c18:	2000002a 	.word	0x2000002a
 8001c1c:	51eb851f 	.word	0x51eb851f
 8001c20:	2000074a 	.word	0x2000074a
 8001c24:	20000738 	.word	0x20000738
 8001c28:	2000071a 	.word	0x2000071a
 8001c2c:	20000740 	.word	0x20000740
 8001c30:	2000073f 	.word	0x2000073f
 8001c34:	20000742 	.word	0x20000742
 8001c38:	20000743 	.word	0x20000743
 8001c3c:	20000749 	.word	0x20000749
 8001c40:	2000073d 	.word	0x2000073d
 8001c44:	2000072a 	.word	0x2000072a
 8001c48:	20000724 	.word	0x20000724
 8001c4c:	20000730 	.word	0x20000730
 8001c50:	2000071e 	.word	0x2000071e
 8001c54:	20000718 	.word	0x20000718

08001c58 <EDO_2>:

void EDO_2(short btnU, short btnD, short btnL, short btnR, short btnC){
 8001c58:	b590      	push	{r4, r7, lr}
 8001c5a:	b085      	sub	sp, #20
 8001c5c:	af02      	add	r7, sp, #8
 8001c5e:	4604      	mov	r4, r0
 8001c60:	4608      	mov	r0, r1
 8001c62:	4611      	mov	r1, r2
 8001c64:	461a      	mov	r2, r3
 8001c66:	4623      	mov	r3, r4
 8001c68:	80fb      	strh	r3, [r7, #6]
 8001c6a:	4603      	mov	r3, r0
 8001c6c:	80bb      	strh	r3, [r7, #4]
 8001c6e:	460b      	mov	r3, r1
 8001c70:	807b      	strh	r3, [r7, #2]
 8001c72:	4613      	mov	r3, r2
 8001c74:	803b      	strh	r3, [r7, #0]
	// Pantalla principal
	if(first == 0){
 8001c76:	4b2a      	ldr	r3, [pc, #168]	; (8001d20 <EDO_2+0xc8>)
 8001c78:	f9b3 3000 	ldrsh.w	r3, [r3]
 8001c7c:	2b00      	cmp	r3, #0
 8001c7e:	d11b      	bne.n	8001cb8 <EDO_2+0x60>
		// Mostrado de valores fijos
		HAL_LCD_Write_AsciiString(word[reloj],48,0);
 8001c80:	2200      	movs	r2, #0
 8001c82:	2130      	movs	r1, #48	; 0x30
 8001c84:	4827      	ldr	r0, [pc, #156]	; (8001d24 <EDO_2+0xcc>)
 8001c86:	f002 fa09 	bl	800409c <HAL_LCD_Write_AsciiString>
		HAL_LCD_Write_ascii(':',60,1);
 8001c8a:	2201      	movs	r2, #1
 8001c8c:	213c      	movs	r1, #60	; 0x3c
 8001c8e:	203a      	movs	r0, #58	; 0x3a
 8001c90:	f002 f99c 	bl	8003fcc <HAL_LCD_Write_ascii>
		HAL_LCD_Write_AsciiString(word[temperatura],30,2);
 8001c94:	2202      	movs	r2, #2
 8001c96:	211e      	movs	r1, #30
 8001c98:	4823      	ldr	r0, [pc, #140]	; (8001d28 <EDO_2+0xd0>)
 8001c9a:	f002 f9ff 	bl	800409c <HAL_LCD_Write_AsciiString>
		HAL_LCD_Write_ascii(SYMBOL_ASCII_CELSIUS,66,3);
 8001c9e:	2203      	movs	r2, #3
 8001ca0:	2142      	movs	r1, #66	; 0x42
 8001ca2:	20f8      	movs	r0, #248	; 0xf8
 8001ca4:	f002 f992 	bl	8003fcc <HAL_LCD_Write_ascii>
		HAL_LCD_Write_ascii('C',72,3);
 8001ca8:	2203      	movs	r2, #3
 8001caa:	2148      	movs	r1, #72	; 0x48
 8001cac:	2043      	movs	r0, #67	; 0x43
 8001cae:	f002 f98d 	bl	8003fcc <HAL_LCD_Write_ascii>
		first = 1;
 8001cb2:	4b1b      	ldr	r3, [pc, #108]	; (8001d20 <EDO_2+0xc8>)
 8001cb4:	2201      	movs	r2, #1
 8001cb6:	801a      	strh	r2, [r3, #0]
	}
	// Obtener tiempo
	// Mostrar tiempo
	HAL_LCD_Write_Number(&Hora,48,1);
 8001cb8:	2201      	movs	r2, #1
 8001cba:	2130      	movs	r1, #48	; 0x30
 8001cbc:	481b      	ldr	r0, [pc, #108]	; (8001d2c <EDO_2+0xd4>)
 8001cbe:	f002 fa1d 	bl	80040fc <HAL_LCD_Write_Number>
	HAL_LCD_Write_Number(&Minuto,66,1);
 8001cc2:	2201      	movs	r2, #1
 8001cc4:	2142      	movs	r1, #66	; 0x42
 8001cc6:	481a      	ldr	r0, [pc, #104]	; (8001d30 <EDO_2+0xd8>)
 8001cc8:	f002 fa18 	bl	80040fc <HAL_LCD_Write_Number>
	// Mostrar Temperaura
	HAL_LCD_Write_Number(&Temp,54,3);
 8001ccc:	2203      	movs	r2, #3
 8001cce:	2136      	movs	r1, #54	; 0x36
 8001cd0:	4818      	ldr	r0, [pc, #96]	; (8001d34 <EDO_2+0xdc>)
 8001cd2:	f002 fa13 	bl	80040fc <HAL_LCD_Write_Number>
	if(btnC == 1 && btnC != btnCa){
 8001cd6:	f9b7 3018 	ldrsh.w	r3, [r7, #24]
 8001cda:	2b01      	cmp	r3, #1
 8001cdc:	d10e      	bne.n	8001cfc <EDO_2+0xa4>
 8001cde:	4b16      	ldr	r3, [pc, #88]	; (8001d38 <EDO_2+0xe0>)
 8001ce0:	f9b3 3000 	ldrsh.w	r3, [r3]
 8001ce4:	f9b7 2018 	ldrsh.w	r2, [r7, #24]
 8001ce8:	429a      	cmp	r2, r3
 8001cea:	d007      	beq.n	8001cfc <EDO_2+0xa4>
		// Cambio de estado
		EA = E3;
 8001cec:	4b13      	ldr	r3, [pc, #76]	; (8001d3c <EDO_2+0xe4>)
 8001cee:	2203      	movs	r2, #3
 8001cf0:	701a      	strb	r2, [r3, #0]
		first = 0;
 8001cf2:	4b0b      	ldr	r3, [pc, #44]	; (8001d20 <EDO_2+0xc8>)
 8001cf4:	2200      	movs	r2, #0
 8001cf6:	801a      	strh	r2, [r3, #0]
		HAL_LCD_Clear();
 8001cf8:	f002 f911 	bl	8003f1e <HAL_LCD_Clear>
	}
	estado_Anterior(btnU, btnD, btnL, btnR, btnC);
 8001cfc:	f9b7 4000 	ldrsh.w	r4, [r7]
 8001d00:	f9b7 2002 	ldrsh.w	r2, [r7, #2]
 8001d04:	f9b7 1004 	ldrsh.w	r1, [r7, #4]
 8001d08:	f9b7 0006 	ldrsh.w	r0, [r7, #6]
 8001d0c:	f9b7 3018 	ldrsh.w	r3, [r7, #24]
 8001d10:	9300      	str	r3, [sp, #0]
 8001d12:	4623      	mov	r3, r4
 8001d14:	f7ff fcca 	bl	80016ac <estado_Anterior>
}
 8001d18:	bf00      	nop
 8001d1a:	370c      	adds	r7, #12
 8001d1c:	46bd      	mov	sp, r7
 8001d1e:	bd90      	pop	{r4, r7, pc}
 8001d20:	2000071c 	.word	0x2000071c
 8001d24:	20000015 	.word	0x20000015
 8001d28:	2000007e 	.word	0x2000007e
 8001d2c:	20000747 	.word	0x20000747
 8001d30:	20000739 	.word	0x20000739
 8001d34:	20000720 	.word	0x20000720
 8001d38:	20000730 	.word	0x20000730
 8001d3c:	20000718 	.word	0x20000718

08001d40 <EDO_3>:

void EDO_3(short btnU, short btnD, short btnL, short btnR, short btnC){
 8001d40:	b590      	push	{r4, r7, lr}
 8001d42:	b085      	sub	sp, #20
 8001d44:	af02      	add	r7, sp, #8
 8001d46:	4604      	mov	r4, r0
 8001d48:	4608      	mov	r0, r1
 8001d4a:	4611      	mov	r1, r2
 8001d4c:	461a      	mov	r2, r3
 8001d4e:	4623      	mov	r3, r4
 8001d50:	80fb      	strh	r3, [r7, #6]
 8001d52:	4603      	mov	r3, r0
 8001d54:	80bb      	strh	r3, [r7, #4]
 8001d56:	460b      	mov	r3, r1
 8001d58:	807b      	strh	r3, [r7, #2]
 8001d5a:	4613      	mov	r3, r2
 8001d5c:	803b      	strh	r3, [r7, #0]
	// Menu
	if(first == 0){
 8001d5e:	4bcf      	ldr	r3, [pc, #828]	; (800209c <EDO_3+0x35c>)
 8001d60:	f9b3 3000 	ldrsh.w	r3, [r3]
 8001d64:	2b00      	cmp	r3, #0
 8001d66:	d12d      	bne.n	8001dc4 <EDO_3+0x84>
			// Mostrado de valores fijos
			HAL_LCD_Write_AsciiString(word[ajustarReloj],24,0);
 8001d68:	2200      	movs	r2, #0
 8001d6a:	2118      	movs	r1, #24
 8001d6c:	48cc      	ldr	r0, [pc, #816]	; (80020a0 <EDO_3+0x360>)
 8001d6e:	f002 f995 	bl	800409c <HAL_LCD_Write_AsciiString>
			HAL_LCD_Write_AsciiString(word[ajustarPastilla],12,1);
 8001d72:	2201      	movs	r2, #1
 8001d74:	210c      	movs	r1, #12
 8001d76:	48cb      	ldr	r0, [pc, #812]	; (80020a4 <EDO_3+0x364>)
 8001d78:	f002 f990 	bl	800409c <HAL_LCD_Write_AsciiString>
			HAL_LCD_Write_AsciiString(word[HoraYtemperatura],13,2);
 8001d7c:	2202      	movs	r2, #2
 8001d7e:	210d      	movs	r1, #13
 8001d80:	48c9      	ldr	r0, [pc, #804]	; (80020a8 <EDO_3+0x368>)
 8001d82:	f002 f98b 	bl	800409c <HAL_LCD_Write_AsciiString>
			HAL_LCD_Write_AsciiString(word[intervalosPastilla],6,3);
 8001d86:	2203      	movs	r2, #3
 8001d88:	2106      	movs	r1, #6
 8001d8a:	48c8      	ldr	r0, [pc, #800]	; (80020ac <EDO_3+0x36c>)
 8001d8c:	f002 f986 	bl	800409c <HAL_LCD_Write_AsciiString>
			// > en A la primera vez
			HAL_LCD_Write_ascii('>',18,0);
 8001d90:	2200      	movs	r2, #0
 8001d92:	2112      	movs	r1, #18
 8001d94:	203e      	movs	r0, #62	; 0x3e
 8001d96:	f002 f919 	bl	8003fcc <HAL_LCD_Write_ascii>
			HAL_LCD_Write_ascii(' ',6,1);
 8001d9a:	2201      	movs	r2, #1
 8001d9c:	2106      	movs	r1, #6
 8001d9e:	2020      	movs	r0, #32
 8001da0:	f002 f914 	bl	8003fcc <HAL_LCD_Write_ascii>
			HAL_LCD_Write_ascii(' ',6,2);
 8001da4:	2202      	movs	r2, #2
 8001da6:	2106      	movs	r1, #6
 8001da8:	2020      	movs	r0, #32
 8001daa:	f002 f90f 	bl	8003fcc <HAL_LCD_Write_ascii>
			HAL_LCD_Write_ascii(' ',0,3);
 8001dae:	2203      	movs	r2, #3
 8001db0:	2100      	movs	r1, #0
 8001db2:	2020      	movs	r0, #32
 8001db4:	f002 f90a 	bl	8003fcc <HAL_LCD_Write_ascii>
			first = 1;
 8001db8:	4bb8      	ldr	r3, [pc, #736]	; (800209c <EDO_3+0x35c>)
 8001dba:	2201      	movs	r2, #1
 8001dbc:	801a      	strh	r2, [r3, #0]
			Puntero=0;
 8001dbe:	4bbc      	ldr	r3, [pc, #752]	; (80020b0 <EDO_3+0x370>)
 8001dc0:	2200      	movs	r2, #0
 8001dc2:	801a      	strh	r2, [r3, #0]
		}

	if(Puntero == 0 && btnC == 1 && btnC != btnCa){
 8001dc4:	4bba      	ldr	r3, [pc, #744]	; (80020b0 <EDO_3+0x370>)
 8001dc6:	f9b3 3000 	ldrsh.w	r3, [r3]
 8001dca:	2b00      	cmp	r3, #0
 8001dcc:	d113      	bne.n	8001df6 <EDO_3+0xb6>
 8001dce:	f9b7 3018 	ldrsh.w	r3, [r7, #24]
 8001dd2:	2b01      	cmp	r3, #1
 8001dd4:	d10f      	bne.n	8001df6 <EDO_3+0xb6>
 8001dd6:	4bb7      	ldr	r3, [pc, #732]	; (80020b4 <EDO_3+0x374>)
 8001dd8:	f9b3 3000 	ldrsh.w	r3, [r3]
 8001ddc:	f9b7 2018 	ldrsh.w	r2, [r7, #24]
 8001de0:	429a      	cmp	r2, r3
 8001de2:	d008      	beq.n	8001df6 <EDO_3+0xb6>
		//Si puntero es igual a 0 y el boton central es presionado, ira a ajustar reloj
		EA=E0;
 8001de4:	4bb4      	ldr	r3, [pc, #720]	; (80020b8 <EDO_3+0x378>)
 8001de6:	2200      	movs	r2, #0
 8001de8:	701a      	strb	r2, [r3, #0]
		HAL_LCD_Clear();
 8001dea:	f002 f898 	bl	8003f1e <HAL_LCD_Clear>
		first=0;
 8001dee:	4bab      	ldr	r3, [pc, #684]	; (800209c <EDO_3+0x35c>)
 8001df0:	2200      	movs	r2, #0
 8001df2:	801a      	strh	r2, [r3, #0]
 8001df4:	e049      	b.n	8001e8a <EDO_3+0x14a>
	}
	else if(Puntero == 1 && btnC == 1 && btnC != btnCa){
 8001df6:	4bae      	ldr	r3, [pc, #696]	; (80020b0 <EDO_3+0x370>)
 8001df8:	f9b3 3000 	ldrsh.w	r3, [r3]
 8001dfc:	2b01      	cmp	r3, #1
 8001dfe:	d113      	bne.n	8001e28 <EDO_3+0xe8>
 8001e00:	f9b7 3018 	ldrsh.w	r3, [r7, #24]
 8001e04:	2b01      	cmp	r3, #1
 8001e06:	d10f      	bne.n	8001e28 <EDO_3+0xe8>
 8001e08:	4baa      	ldr	r3, [pc, #680]	; (80020b4 <EDO_3+0x374>)
 8001e0a:	f9b3 3000 	ldrsh.w	r3, [r3]
 8001e0e:	f9b7 2018 	ldrsh.w	r2, [r7, #24]
 8001e12:	429a      	cmp	r2, r3
 8001e14:	d008      	beq.n	8001e28 <EDO_3+0xe8>
		//Si puntero es igual a 1 y el boton central es presionado, ira a ajustar intervalos pastilla
		EA=E1;
 8001e16:	4ba8      	ldr	r3, [pc, #672]	; (80020b8 <EDO_3+0x378>)
 8001e18:	2201      	movs	r2, #1
 8001e1a:	701a      	strb	r2, [r3, #0]
		HAL_LCD_Clear();
 8001e1c:	f002 f87f 	bl	8003f1e <HAL_LCD_Clear>
		first=0;
 8001e20:	4b9e      	ldr	r3, [pc, #632]	; (800209c <EDO_3+0x35c>)
 8001e22:	2200      	movs	r2, #0
 8001e24:	801a      	strh	r2, [r3, #0]
 8001e26:	e030      	b.n	8001e8a <EDO_3+0x14a>
	}
	else if(Puntero == 2 && btnC == 1 && btnC != btnCa){
 8001e28:	4ba1      	ldr	r3, [pc, #644]	; (80020b0 <EDO_3+0x370>)
 8001e2a:	f9b3 3000 	ldrsh.w	r3, [r3]
 8001e2e:	2b02      	cmp	r3, #2
 8001e30:	d113      	bne.n	8001e5a <EDO_3+0x11a>
 8001e32:	f9b7 3018 	ldrsh.w	r3, [r7, #24]
 8001e36:	2b01      	cmp	r3, #1
 8001e38:	d10f      	bne.n	8001e5a <EDO_3+0x11a>
 8001e3a:	4b9e      	ldr	r3, [pc, #632]	; (80020b4 <EDO_3+0x374>)
 8001e3c:	f9b3 3000 	ldrsh.w	r3, [r3]
 8001e40:	f9b7 2018 	ldrsh.w	r2, [r7, #24]
 8001e44:	429a      	cmp	r2, r3
 8001e46:	d008      	beq.n	8001e5a <EDO_3+0x11a>
		//Si puntero es igual a 2 y el boton central es presionado, ira a mostrar hora actual y temp
		EA=E2;
 8001e48:	4b9b      	ldr	r3, [pc, #620]	; (80020b8 <EDO_3+0x378>)
 8001e4a:	2202      	movs	r2, #2
 8001e4c:	701a      	strb	r2, [r3, #0]
		HAL_LCD_Clear();
 8001e4e:	f002 f866 	bl	8003f1e <HAL_LCD_Clear>
		first=0;
 8001e52:	4b92      	ldr	r3, [pc, #584]	; (800209c <EDO_3+0x35c>)
 8001e54:	2200      	movs	r2, #0
 8001e56:	801a      	strh	r2, [r3, #0]
 8001e58:	e017      	b.n	8001e8a <EDO_3+0x14a>
	}
	else if(Puntero == 3 && btnC == 1 && btnC != btnCa){
 8001e5a:	4b95      	ldr	r3, [pc, #596]	; (80020b0 <EDO_3+0x370>)
 8001e5c:	f9b3 3000 	ldrsh.w	r3, [r3]
 8001e60:	2b03      	cmp	r3, #3
 8001e62:	d112      	bne.n	8001e8a <EDO_3+0x14a>
 8001e64:	f9b7 3018 	ldrsh.w	r3, [r7, #24]
 8001e68:	2b01      	cmp	r3, #1
 8001e6a:	d10e      	bne.n	8001e8a <EDO_3+0x14a>
 8001e6c:	4b91      	ldr	r3, [pc, #580]	; (80020b4 <EDO_3+0x374>)
 8001e6e:	f9b3 3000 	ldrsh.w	r3, [r3]
 8001e72:	f9b7 2018 	ldrsh.w	r2, [r7, #24]
 8001e76:	429a      	cmp	r2, r3
 8001e78:	d007      	beq.n	8001e8a <EDO_3+0x14a>
		//Si puntero es igual a 3 y el boton central es presionado, ira a mostrar los intervalos configurados
		EA=E7;
 8001e7a:	4b8f      	ldr	r3, [pc, #572]	; (80020b8 <EDO_3+0x378>)
 8001e7c:	2207      	movs	r2, #7
 8001e7e:	701a      	strb	r2, [r3, #0]
		HAL_LCD_Clear();
 8001e80:	f002 f84d 	bl	8003f1e <HAL_LCD_Clear>
		first=0;
 8001e84:	4b85      	ldr	r3, [pc, #532]	; (800209c <EDO_3+0x35c>)
 8001e86:	2200      	movs	r2, #0
 8001e88:	801a      	strh	r2, [r3, #0]
		}
	// Puntero
	if(btnD == 1 && btnD != btnDa && btnU == 0){
 8001e8a:	f9b7 3004 	ldrsh.w	r3, [r7, #4]
 8001e8e:	2b01      	cmp	r3, #1
 8001e90:	f040 8091 	bne.w	8001fb6 <EDO_3+0x276>
 8001e94:	4b89      	ldr	r3, [pc, #548]	; (80020bc <EDO_3+0x37c>)
 8001e96:	f9b3 3000 	ldrsh.w	r3, [r3]
 8001e9a:	f9b7 2004 	ldrsh.w	r2, [r7, #4]
 8001e9e:	429a      	cmp	r2, r3
 8001ea0:	f000 8089 	beq.w	8001fb6 <EDO_3+0x276>
 8001ea4:	f9b7 3006 	ldrsh.w	r3, [r7, #6]
 8001ea8:	2b00      	cmp	r3, #0
 8001eaa:	f040 8084 	bne.w	8001fb6 <EDO_3+0x276>
		Puntero += 1;
 8001eae:	4b80      	ldr	r3, [pc, #512]	; (80020b0 <EDO_3+0x370>)
 8001eb0:	f9b3 3000 	ldrsh.w	r3, [r3]
 8001eb4:	b29b      	uxth	r3, r3
 8001eb6:	3301      	adds	r3, #1
 8001eb8:	b29b      	uxth	r3, r3
 8001eba:	b21a      	sxth	r2, r3
 8001ebc:	4b7c      	ldr	r3, [pc, #496]	; (80020b0 <EDO_3+0x370>)
 8001ebe:	801a      	strh	r2, [r3, #0]
		if (Puntero > 3)
 8001ec0:	4b7b      	ldr	r3, [pc, #492]	; (80020b0 <EDO_3+0x370>)
 8001ec2:	f9b3 3000 	ldrsh.w	r3, [r3]
 8001ec6:	2b03      	cmp	r3, #3
 8001ec8:	dd02      	ble.n	8001ed0 <EDO_3+0x190>
			Puntero = 0;
 8001eca:	4b79      	ldr	r3, [pc, #484]	; (80020b0 <EDO_3+0x370>)
 8001ecc:	2200      	movs	r2, #0
 8001ece:	801a      	strh	r2, [r3, #0]
		switch (Puntero){
 8001ed0:	4b77      	ldr	r3, [pc, #476]	; (80020b0 <EDO_3+0x370>)
 8001ed2:	f9b3 3000 	ldrsh.w	r3, [r3]
 8001ed6:	2b03      	cmp	r3, #3
 8001ed8:	f200 8109 	bhi.w	80020ee <EDO_3+0x3ae>
 8001edc:	a201      	add	r2, pc, #4	; (adr r2, 8001ee4 <EDO_3+0x1a4>)
 8001ede:	f852 f023 	ldr.w	pc, [r2, r3, lsl #2]
 8001ee2:	bf00      	nop
 8001ee4:	08001ef5 	.word	0x08001ef5
 8001ee8:	08001f25 	.word	0x08001f25
 8001eec:	08001f55 	.word	0x08001f55
 8001ef0:	08001f85 	.word	0x08001f85
			case 0:
				LL_mDelay(1);
 8001ef4:	2001      	movs	r0, #1
 8001ef6:	f001 ff15 	bl	8003d24 <LL_mDelay>
				HAL_LCD_Write_ascii('>',18,0);
 8001efa:	2200      	movs	r2, #0
 8001efc:	2112      	movs	r1, #18
 8001efe:	203e      	movs	r0, #62	; 0x3e
 8001f00:	f002 f864 	bl	8003fcc <HAL_LCD_Write_ascii>
				HAL_LCD_Write_ascii(' ',6,1);
 8001f04:	2201      	movs	r2, #1
 8001f06:	2106      	movs	r1, #6
 8001f08:	2020      	movs	r0, #32
 8001f0a:	f002 f85f 	bl	8003fcc <HAL_LCD_Write_ascii>
				HAL_LCD_Write_ascii(' ',6,2);
 8001f0e:	2202      	movs	r2, #2
 8001f10:	2106      	movs	r1, #6
 8001f12:	2020      	movs	r0, #32
 8001f14:	f002 f85a 	bl	8003fcc <HAL_LCD_Write_ascii>
				HAL_LCD_Write_ascii(' ',0,3);
 8001f18:	2203      	movs	r2, #3
 8001f1a:	2100      	movs	r1, #0
 8001f1c:	2020      	movs	r0, #32
 8001f1e:	f002 f855 	bl	8003fcc <HAL_LCD_Write_ascii>
				break;
 8001f22:	e047      	b.n	8001fb4 <EDO_3+0x274>
			case 1:
				LL_mDelay(1);
 8001f24:	2001      	movs	r0, #1
 8001f26:	f001 fefd 	bl	8003d24 <LL_mDelay>
				HAL_LCD_Write_ascii(' ',18,0);
 8001f2a:	2200      	movs	r2, #0
 8001f2c:	2112      	movs	r1, #18
 8001f2e:	2020      	movs	r0, #32
 8001f30:	f002 f84c 	bl	8003fcc <HAL_LCD_Write_ascii>
				HAL_LCD_Write_ascii('>',6,1);
 8001f34:	2201      	movs	r2, #1
 8001f36:	2106      	movs	r1, #6
 8001f38:	203e      	movs	r0, #62	; 0x3e
 8001f3a:	f002 f847 	bl	8003fcc <HAL_LCD_Write_ascii>
				HAL_LCD_Write_ascii(' ',6,2);
 8001f3e:	2202      	movs	r2, #2
 8001f40:	2106      	movs	r1, #6
 8001f42:	2020      	movs	r0, #32
 8001f44:	f002 f842 	bl	8003fcc <HAL_LCD_Write_ascii>
				HAL_LCD_Write_ascii(' ',0,3);
 8001f48:	2203      	movs	r2, #3
 8001f4a:	2100      	movs	r1, #0
 8001f4c:	2020      	movs	r0, #32
 8001f4e:	f002 f83d 	bl	8003fcc <HAL_LCD_Write_ascii>
				break;
 8001f52:	e02f      	b.n	8001fb4 <EDO_3+0x274>
			case 2:
				LL_mDelay(1);
 8001f54:	2001      	movs	r0, #1
 8001f56:	f001 fee5 	bl	8003d24 <LL_mDelay>
				HAL_LCD_Write_ascii(' ',18,0);
 8001f5a:	2200      	movs	r2, #0
 8001f5c:	2112      	movs	r1, #18
 8001f5e:	2020      	movs	r0, #32
 8001f60:	f002 f834 	bl	8003fcc <HAL_LCD_Write_ascii>
				HAL_LCD_Write_ascii(' ',6,1);
 8001f64:	2201      	movs	r2, #1
 8001f66:	2106      	movs	r1, #6
 8001f68:	2020      	movs	r0, #32
 8001f6a:	f002 f82f 	bl	8003fcc <HAL_LCD_Write_ascii>
				HAL_LCD_Write_ascii('>',6,2);
 8001f6e:	2202      	movs	r2, #2
 8001f70:	2106      	movs	r1, #6
 8001f72:	203e      	movs	r0, #62	; 0x3e
 8001f74:	f002 f82a 	bl	8003fcc <HAL_LCD_Write_ascii>
				HAL_LCD_Write_ascii(' ',0,3);
 8001f78:	2203      	movs	r2, #3
 8001f7a:	2100      	movs	r1, #0
 8001f7c:	2020      	movs	r0, #32
 8001f7e:	f002 f825 	bl	8003fcc <HAL_LCD_Write_ascii>
				break;
 8001f82:	e017      	b.n	8001fb4 <EDO_3+0x274>
			case 3:
				LL_mDelay(1);
 8001f84:	2001      	movs	r0, #1
 8001f86:	f001 fecd 	bl	8003d24 <LL_mDelay>
				HAL_LCD_Write_ascii(' ',18,0);
 8001f8a:	2200      	movs	r2, #0
 8001f8c:	2112      	movs	r1, #18
 8001f8e:	2020      	movs	r0, #32
 8001f90:	f002 f81c 	bl	8003fcc <HAL_LCD_Write_ascii>
				HAL_LCD_Write_ascii(' ',6,1);
 8001f94:	2201      	movs	r2, #1
 8001f96:	2106      	movs	r1, #6
 8001f98:	2020      	movs	r0, #32
 8001f9a:	f002 f817 	bl	8003fcc <HAL_LCD_Write_ascii>
				HAL_LCD_Write_ascii(' ',6,2);
 8001f9e:	2202      	movs	r2, #2
 8001fa0:	2106      	movs	r1, #6
 8001fa2:	2020      	movs	r0, #32
 8001fa4:	f002 f812 	bl	8003fcc <HAL_LCD_Write_ascii>
				HAL_LCD_Write_ascii('>',0,3);
 8001fa8:	2203      	movs	r2, #3
 8001faa:	2100      	movs	r1, #0
 8001fac:	203e      	movs	r0, #62	; 0x3e
 8001fae:	f002 f80d 	bl	8003fcc <HAL_LCD_Write_ascii>
							break;
 8001fb2:	bf00      	nop
		}
	}
 8001fb4:	e09b      	b.n	80020ee <EDO_3+0x3ae>
	else if(btnU == 1 && btnU != btnUa && btnD == 0){
 8001fb6:	f9b7 3006 	ldrsh.w	r3, [r7, #6]
 8001fba:	2b01      	cmp	r3, #1
 8001fbc:	f040 8098 	bne.w	80020f0 <EDO_3+0x3b0>
 8001fc0:	4b3f      	ldr	r3, [pc, #252]	; (80020c0 <EDO_3+0x380>)
 8001fc2:	f9b3 3000 	ldrsh.w	r3, [r3]
 8001fc6:	f9b7 2006 	ldrsh.w	r2, [r7, #6]
 8001fca:	429a      	cmp	r2, r3
 8001fcc:	f000 8090 	beq.w	80020f0 <EDO_3+0x3b0>
 8001fd0:	f9b7 3004 	ldrsh.w	r3, [r7, #4]
 8001fd4:	2b00      	cmp	r3, #0
 8001fd6:	f040 808b 	bne.w	80020f0 <EDO_3+0x3b0>
			Puntero -= 1;
 8001fda:	4b35      	ldr	r3, [pc, #212]	; (80020b0 <EDO_3+0x370>)
 8001fdc:	f9b3 3000 	ldrsh.w	r3, [r3]
 8001fe0:	b29b      	uxth	r3, r3
 8001fe2:	3b01      	subs	r3, #1
 8001fe4:	b29b      	uxth	r3, r3
 8001fe6:	b21a      	sxth	r2, r3
 8001fe8:	4b31      	ldr	r3, [pc, #196]	; (80020b0 <EDO_3+0x370>)
 8001fea:	801a      	strh	r2, [r3, #0]
			if (Puntero < 0)
 8001fec:	4b30      	ldr	r3, [pc, #192]	; (80020b0 <EDO_3+0x370>)
 8001fee:	f9b3 3000 	ldrsh.w	r3, [r3]
 8001ff2:	2b00      	cmp	r3, #0
 8001ff4:	da02      	bge.n	8001ffc <EDO_3+0x2bc>
				Puntero = 3;
 8001ff6:	4b2e      	ldr	r3, [pc, #184]	; (80020b0 <EDO_3+0x370>)
 8001ff8:	2203      	movs	r2, #3
 8001ffa:	801a      	strh	r2, [r3, #0]
			switch (Puntero){
 8001ffc:	4b2c      	ldr	r3, [pc, #176]	; (80020b0 <EDO_3+0x370>)
 8001ffe:	f9b3 3000 	ldrsh.w	r3, [r3]
 8002002:	2b03      	cmp	r3, #3
 8002004:	d874      	bhi.n	80020f0 <EDO_3+0x3b0>
 8002006:	a201      	add	r2, pc, #4	; (adr r2, 800200c <EDO_3+0x2cc>)
 8002008:	f852 f023 	ldr.w	pc, [r2, r3, lsl #2]
 800200c:	0800201d 	.word	0x0800201d
 8002010:	08002047 	.word	0x08002047
 8002014:	08002071 	.word	0x08002071
 8002018:	080020c5 	.word	0x080020c5
				case 0:
					//LL_mDelay(1);
					HAL_LCD_Write_ascii('>',18,0);
 800201c:	2200      	movs	r2, #0
 800201e:	2112      	movs	r1, #18
 8002020:	203e      	movs	r0, #62	; 0x3e
 8002022:	f001 ffd3 	bl	8003fcc <HAL_LCD_Write_ascii>
					HAL_LCD_Write_ascii(' ',6,1);
 8002026:	2201      	movs	r2, #1
 8002028:	2106      	movs	r1, #6
 800202a:	2020      	movs	r0, #32
 800202c:	f001 ffce 	bl	8003fcc <HAL_LCD_Write_ascii>
					HAL_LCD_Write_ascii(' ',6,2);
 8002030:	2202      	movs	r2, #2
 8002032:	2106      	movs	r1, #6
 8002034:	2020      	movs	r0, #32
 8002036:	f001 ffc9 	bl	8003fcc <HAL_LCD_Write_ascii>
					HAL_LCD_Write_ascii(' ',0,3);
 800203a:	2203      	movs	r2, #3
 800203c:	2100      	movs	r1, #0
 800203e:	2020      	movs	r0, #32
 8002040:	f001 ffc4 	bl	8003fcc <HAL_LCD_Write_ascii>
					break;
 8002044:	e054      	b.n	80020f0 <EDO_3+0x3b0>
				case 1:
					//LL_mDelay(1);
					HAL_LCD_Write_ascii(' ',18,0);
 8002046:	2200      	movs	r2, #0
 8002048:	2112      	movs	r1, #18
 800204a:	2020      	movs	r0, #32
 800204c:	f001 ffbe 	bl	8003fcc <HAL_LCD_Write_ascii>
					HAL_LCD_Write_ascii('>',6,1);
 8002050:	2201      	movs	r2, #1
 8002052:	2106      	movs	r1, #6
 8002054:	203e      	movs	r0, #62	; 0x3e
 8002056:	f001 ffb9 	bl	8003fcc <HAL_LCD_Write_ascii>
					HAL_LCD_Write_ascii(' ',6,2);
 800205a:	2202      	movs	r2, #2
 800205c:	2106      	movs	r1, #6
 800205e:	2020      	movs	r0, #32
 8002060:	f001 ffb4 	bl	8003fcc <HAL_LCD_Write_ascii>
					HAL_LCD_Write_ascii(' ',0,3);
 8002064:	2203      	movs	r2, #3
 8002066:	2100      	movs	r1, #0
 8002068:	2020      	movs	r0, #32
 800206a:	f001 ffaf 	bl	8003fcc <HAL_LCD_Write_ascii>
					break;
 800206e:	e03f      	b.n	80020f0 <EDO_3+0x3b0>
				case 2:
					//LL_mDelay(1);
					HAL_LCD_Write_ascii(' ',18,0);
 8002070:	2200      	movs	r2, #0
 8002072:	2112      	movs	r1, #18
 8002074:	2020      	movs	r0, #32
 8002076:	f001 ffa9 	bl	8003fcc <HAL_LCD_Write_ascii>
					HAL_LCD_Write_ascii(' ',6,1);
 800207a:	2201      	movs	r2, #1
 800207c:	2106      	movs	r1, #6
 800207e:	2020      	movs	r0, #32
 8002080:	f001 ffa4 	bl	8003fcc <HAL_LCD_Write_ascii>
					HAL_LCD_Write_ascii('>',6,2);
 8002084:	2202      	movs	r2, #2
 8002086:	2106      	movs	r1, #6
 8002088:	203e      	movs	r0, #62	; 0x3e
 800208a:	f001 ff9f 	bl	8003fcc <HAL_LCD_Write_ascii>
					HAL_LCD_Write_ascii(' ',0,3);
 800208e:	2203      	movs	r2, #3
 8002090:	2100      	movs	r1, #0
 8002092:	2020      	movs	r0, #32
 8002094:	f001 ff9a 	bl	8003fcc <HAL_LCD_Write_ascii>
					break;
 8002098:	e02a      	b.n	80020f0 <EDO_3+0x3b0>
 800209a:	bf00      	nop
 800209c:	2000071c 	.word	0x2000071c
 80020a0:	20000093 	.word	0x20000093
 80020a4:	200000a8 	.word	0x200000a8
 80020a8:	200000bd 	.word	0x200000bd
 80020ac:	200000d2 	.word	0x200000d2
 80020b0:	2000071a 	.word	0x2000071a
 80020b4:	20000730 	.word	0x20000730
 80020b8:	20000718 	.word	0x20000718
 80020bc:	20000728 	.word	0x20000728
 80020c0:	2000072c 	.word	0x2000072c
				case 3:
					//LL_mDelay(1);
					HAL_LCD_Write_ascii(' ',18,0);
 80020c4:	2200      	movs	r2, #0
 80020c6:	2112      	movs	r1, #18
 80020c8:	2020      	movs	r0, #32
 80020ca:	f001 ff7f 	bl	8003fcc <HAL_LCD_Write_ascii>
					HAL_LCD_Write_ascii(' ',6,1);
 80020ce:	2201      	movs	r2, #1
 80020d0:	2106      	movs	r1, #6
 80020d2:	2020      	movs	r0, #32
 80020d4:	f001 ff7a 	bl	8003fcc <HAL_LCD_Write_ascii>
					HAL_LCD_Write_ascii(' ',6,2);
 80020d8:	2202      	movs	r2, #2
 80020da:	2106      	movs	r1, #6
 80020dc:	2020      	movs	r0, #32
 80020de:	f001 ff75 	bl	8003fcc <HAL_LCD_Write_ascii>
					HAL_LCD_Write_ascii('>',0,3);
 80020e2:	2203      	movs	r2, #3
 80020e4:	2100      	movs	r1, #0
 80020e6:	203e      	movs	r0, #62	; 0x3e
 80020e8:	f001 ff70 	bl	8003fcc <HAL_LCD_Write_ascii>
								break;
 80020ec:	e000      	b.n	80020f0 <EDO_3+0x3b0>
	}
 80020ee:	bf00      	nop
		// Cambio de estado

		first = 0;
		HAL_LCD_Clear();
	}*/
	estado_Anterior(btnU, btnD, btnL, btnR, btnC);
 80020f0:	f9b7 4000 	ldrsh.w	r4, [r7]
 80020f4:	f9b7 2002 	ldrsh.w	r2, [r7, #2]
 80020f8:	f9b7 1004 	ldrsh.w	r1, [r7, #4]
 80020fc:	f9b7 0006 	ldrsh.w	r0, [r7, #6]
 8002100:	f9b7 3018 	ldrsh.w	r3, [r7, #24]
 8002104:	9300      	str	r3, [sp, #0]
 8002106:	4623      	mov	r3, r4
 8002108:	f7ff fad0 	bl	80016ac <estado_Anterior>
}
 800210c:	bf00      	nop
 800210e:	370c      	adds	r7, #12
 8002110:	46bd      	mov	sp, r7
 8002112:	bd90      	pop	{r4, r7, pc}

08002114 <EDO_4>:

void EDO_4(short btnU, short btnD, short btnL, short btnR, short btnC){
 8002114:	b590      	push	{r4, r7, lr}
 8002116:	b085      	sub	sp, #20
 8002118:	af02      	add	r7, sp, #8
 800211a:	4604      	mov	r4, r0
 800211c:	4608      	mov	r0, r1
 800211e:	4611      	mov	r1, r2
 8002120:	461a      	mov	r2, r3
 8002122:	4623      	mov	r3, r4
 8002124:	80fb      	strh	r3, [r7, #6]
 8002126:	4603      	mov	r3, r0
 8002128:	80bb      	strh	r3, [r7, #4]
 800212a:	460b      	mov	r3, r1
 800212c:	807b      	strh	r3, [r7, #2]
 800212e:	4613      	mov	r3, r2
 8002130:	803b      	strh	r3, [r7, #0]
	// Alarma Temperatura
	if(first == 0)
 8002132:	4b2b      	ldr	r3, [pc, #172]	; (80021e0 <EDO_4+0xcc>)
 8002134:	f9b3 3000 	ldrsh.w	r3, [r3]
 8002138:	2b00      	cmp	r3, #0
 800213a:	d122      	bne.n	8002182 <EDO_4+0x6e>
		{
			// Mostrado de valores fijos
			HAL_LCD_Clear();
 800213c:	f001 feef 	bl	8003f1e <HAL_LCD_Clear>
			HAL_LCD_Write_AsciiString(word[alerta],30,0);
 8002140:	2200      	movs	r2, #0
 8002142:	211e      	movs	r1, #30
 8002144:	4827      	ldr	r0, [pc, #156]	; (80021e4 <EDO_4+0xd0>)
 8002146:	f001 ffa9 	bl	800409c <HAL_LCD_Write_AsciiString>
			HAL_LCD_Write_AsciiString(word[de],72,0);
 800214a:	2200      	movs	r2, #0
 800214c:	2148      	movs	r1, #72	; 0x48
 800214e:	4826      	ldr	r0, [pc, #152]	; (80021e8 <EDO_4+0xd4>)
 8002150:	f001 ffa4 	bl	800409c <HAL_LCD_Write_AsciiString>
			HAL_LCD_Write_AsciiString(word[temperatura],24,1);
 8002154:	2201      	movs	r2, #1
 8002156:	2118      	movs	r1, #24
 8002158:	4824      	ldr	r0, [pc, #144]	; (80021ec <EDO_4+0xd8>)
 800215a:	f001 ff9f 	bl	800409c <HAL_LCD_Write_AsciiString>
			HAL_LCD_Write_AsciiString(word[elevada],36,2);
 800215e:	2202      	movs	r2, #2
 8002160:	2124      	movs	r1, #36	; 0x24
 8002162:	4823      	ldr	r0, [pc, #140]	; (80021f0 <EDO_4+0xdc>)
 8002164:	f001 ff9a 	bl	800409c <HAL_LCD_Write_AsciiString>
			HAL_LCD_Write_ascii(SYMBOL_ASCII_CELSIUS,60,3);
 8002168:	2203      	movs	r2, #3
 800216a:	213c      	movs	r1, #60	; 0x3c
 800216c:	20f8      	movs	r0, #248	; 0xf8
 800216e:	f001 ff2d 	bl	8003fcc <HAL_LCD_Write_ascii>
			HAL_LCD_Write_ascii('C',66,3);
 8002172:	2203      	movs	r2, #3
 8002174:	2142      	movs	r1, #66	; 0x42
 8002176:	2043      	movs	r0, #67	; 0x43
 8002178:	f001 ff28 	bl	8003fcc <HAL_LCD_Write_ascii>
			first = 1;
 800217c:	4b18      	ldr	r3, [pc, #96]	; (80021e0 <EDO_4+0xcc>)
 800217e:	2201      	movs	r2, #1
 8002180:	801a      	strh	r2, [r3, #0]
		}
		if((Minuto-tiempobuzer) >= 2)
 8002182:	4b1c      	ldr	r3, [pc, #112]	; (80021f4 <EDO_4+0xe0>)
 8002184:	781b      	ldrb	r3, [r3, #0]
 8002186:	461a      	mov	r2, r3
 8002188:	4b1b      	ldr	r3, [pc, #108]	; (80021f8 <EDO_4+0xe4>)
 800218a:	781b      	ldrb	r3, [r3, #0]
 800218c:	1ad3      	subs	r3, r2, r3
 800218e:	2b01      	cmp	r3, #1
 8002190:	dd02      	ble.n	8002198 <EDO_4+0x84>
			HAL_Buzzer_State(0);
 8002192:	2000      	movs	r0, #0
 8002194:	f001 fdfa 	bl	8003d8c <HAL_Buzzer_State>
		HAL_LCD_Write_Number(&Temp,48,3);
 8002198:	2203      	movs	r2, #3
 800219a:	2130      	movs	r1, #48	; 0x30
 800219c:	4817      	ldr	r0, [pc, #92]	; (80021fc <EDO_4+0xe8>)
 800219e:	f001 ffad 	bl	80040fc <HAL_LCD_Write_Number>
		/*El estado actual se mantendr en el Estado 8 (estado alerta de temperatura elevada) mientras  temp_alert este activa
		 esto debido a que la temperatura no a decendido del valor limite
		*/
		if(!temp_alert)
 80021a2:	4b17      	ldr	r3, [pc, #92]	; (8002200 <EDO_4+0xec>)
 80021a4:	781b      	ldrb	r3, [r3, #0]
 80021a6:	2b00      	cmp	r3, #0
 80021a8:	d108      	bne.n	80021bc <EDO_4+0xa8>
		{
			//Si la temperatura deciende del valor limite, el estado regresa a mostrar la pantalla principal
			EA = E2;
 80021aa:	4b16      	ldr	r3, [pc, #88]	; (8002204 <EDO_4+0xf0>)
 80021ac:	2202      	movs	r2, #2
 80021ae:	701a      	strb	r2, [r3, #0]
			first = 0;
 80021b0:	4b0b      	ldr	r3, [pc, #44]	; (80021e0 <EDO_4+0xcc>)
 80021b2:	2200      	movs	r2, #0
 80021b4:	801a      	strh	r2, [r3, #0]
			HAL_Buzzer_State(0);
 80021b6:	2000      	movs	r0, #0
 80021b8:	f001 fde8 	bl	8003d8c <HAL_Buzzer_State>
		}

		estado_Anterior(btnU, btnD, btnL, btnR, btnC);
 80021bc:	f9b7 4000 	ldrsh.w	r4, [r7]
 80021c0:	f9b7 2002 	ldrsh.w	r2, [r7, #2]
 80021c4:	f9b7 1004 	ldrsh.w	r1, [r7, #4]
 80021c8:	f9b7 0006 	ldrsh.w	r0, [r7, #6]
 80021cc:	f9b7 3018 	ldrsh.w	r3, [r7, #24]
 80021d0:	9300      	str	r3, [sp, #0]
 80021d2:	4623      	mov	r3, r4
 80021d4:	f7ff fa6a 	bl	80016ac <estado_Anterior>
}
 80021d8:	bf00      	nop
 80021da:	370c      	adds	r7, #12
 80021dc:	46bd      	mov	sp, r7
 80021de:	bd90      	pop	{r4, r7, pc}
 80021e0:	2000071c 	.word	0x2000071c
 80021e4:	2000017a 	.word	0x2000017a
 80021e8:	2000018f 	.word	0x2000018f
 80021ec:	2000007e 	.word	0x2000007e
 80021f0:	200001a4 	.word	0x200001a4
 80021f4:	20000739 	.word	0x20000739
 80021f8:	20000745 	.word	0x20000745
 80021fc:	20000720 	.word	0x20000720
 8002200:	20000721 	.word	0x20000721
 8002204:	20000718 	.word	0x20000718

08002208 <EDO_5>:

void EDO_5(short btnU, short btnD, short btnL, short btnR, short btnC){
 8002208:	b590      	push	{r4, r7, lr}
 800220a:	b085      	sub	sp, #20
 800220c:	af02      	add	r7, sp, #8
 800220e:	4604      	mov	r4, r0
 8002210:	4608      	mov	r0, r1
 8002212:	4611      	mov	r1, r2
 8002214:	461a      	mov	r2, r3
 8002216:	4623      	mov	r3, r4
 8002218:	80fb      	strh	r3, [r7, #6]
 800221a:	4603      	mov	r3, r0
 800221c:	80bb      	strh	r3, [r7, #4]
 800221e:	460b      	mov	r3, r1
 8002220:	807b      	strh	r3, [r7, #2]
 8002222:	4613      	mov	r3, r2
 8002224:	803b      	strh	r3, [r7, #0]
	// Alarma Pastilla
	if(first == 0){
 8002226:	4b8e      	ldr	r3, [pc, #568]	; (8002460 <EDO_5+0x258>)
 8002228:	f9b3 3000 	ldrsh.w	r3, [r3]
 800222c:	2b00      	cmp	r3, #0
 800222e:	d11d      	bne.n	800226c <EDO_5+0x64>
		// Mostrado de valores fijos
		HAL_LCD_Clear();
 8002230:	f001 fe75 	bl	8003f1e <HAL_LCD_Clear>
		HAL_LCD_Write_AsciiString(word[tomePastilla],24,0);
 8002234:	2200      	movs	r2, #0
 8002236:	2118      	movs	r1, #24
 8002238:	488a      	ldr	r0, [pc, #552]	; (8002464 <EDO_5+0x25c>)
 800223a:	f001 ff2f 	bl	800409c <HAL_LCD_Write_AsciiString>
		HAL_LCD_Write_AsciiString(word[rojo],36,1);
 800223e:	2201      	movs	r2, #1
 8002240:	2124      	movs	r1, #36	; 0x24
 8002242:	4889      	ldr	r0, [pc, #548]	; (8002468 <EDO_5+0x260>)
 8002244:	f001 ff2a 	bl	800409c <HAL_LCD_Write_AsciiString>
		HAL_LCD_Write_AsciiString(word[verde],66,1);
 8002248:	2201      	movs	r2, #1
 800224a:	2142      	movs	r1, #66	; 0x42
 800224c:	4887      	ldr	r0, [pc, #540]	; (800246c <EDO_5+0x264>)
 800224e:	f001 ff25 	bl	800409c <HAL_LCD_Write_AsciiString>
		HAL_LCD_Write_AsciiString(word[azul],54,2);
 8002252:	2202      	movs	r2, #2
 8002254:	2136      	movs	r1, #54	; 0x36
 8002256:	4886      	ldr	r0, [pc, #536]	; (8002470 <EDO_5+0x268>)
 8002258:	f001 ff20 	bl	800409c <HAL_LCD_Write_AsciiString>
		HAL_LCD_Write_AsciiString(word[entendido],30,3);
 800225c:	2203      	movs	r2, #3
 800225e:	211e      	movs	r1, #30
 8002260:	4884      	ldr	r0, [pc, #528]	; (8002474 <EDO_5+0x26c>)
 8002262:	f001 ff1b 	bl	800409c <HAL_LCD_Write_AsciiString>
		first = 1;
 8002266:	4b7e      	ldr	r3, [pc, #504]	; (8002460 <EDO_5+0x258>)
 8002268:	2201      	movs	r2, #1
 800226a:	801a      	strh	r2, [r3, #0]
	}
	if (alarma1==active && alarma2 ==inactive && alarma3 == inactive)
 800226c:	4b82      	ldr	r3, [pc, #520]	; (8002478 <EDO_5+0x270>)
 800226e:	781b      	ldrb	r3, [r3, #0]
 8002270:	2b01      	cmp	r3, #1
 8002272:	d10f      	bne.n	8002294 <EDO_5+0x8c>
 8002274:	4b81      	ldr	r3, [pc, #516]	; (800247c <EDO_5+0x274>)
 8002276:	781b      	ldrb	r3, [r3, #0]
 8002278:	2b00      	cmp	r3, #0
 800227a:	d10b      	bne.n	8002294 <EDO_5+0x8c>
 800227c:	4b80      	ldr	r3, [pc, #512]	; (8002480 <EDO_5+0x278>)
 800227e:	781b      	ldrb	r3, [r3, #0]
 8002280:	2b00      	cmp	r3, #0
 8002282:	d107      	bne.n	8002294 <EDO_5+0x8c>
	{
		HAL_LCD_Write_ascii('>',30,1);
 8002284:	2201      	movs	r2, #1
 8002286:	211e      	movs	r1, #30
 8002288:	203e      	movs	r0, #62	; 0x3e
 800228a:	f001 fe9f 	bl	8003fcc <HAL_LCD_Write_ascii>
		rgb_rojo();
 800228e:	f001 ffa9 	bl	80041e4 <rgb_rojo>
 8002292:	e092      	b.n	80023ba <EDO_5+0x1b2>
	}
	else if (alarma2==active && alarma1 == inactive && alarma3 == inactive)
 8002294:	4b79      	ldr	r3, [pc, #484]	; (800247c <EDO_5+0x274>)
 8002296:	781b      	ldrb	r3, [r3, #0]
 8002298:	2b01      	cmp	r3, #1
 800229a:	d10f      	bne.n	80022bc <EDO_5+0xb4>
 800229c:	4b76      	ldr	r3, [pc, #472]	; (8002478 <EDO_5+0x270>)
 800229e:	781b      	ldrb	r3, [r3, #0]
 80022a0:	2b00      	cmp	r3, #0
 80022a2:	d10b      	bne.n	80022bc <EDO_5+0xb4>
 80022a4:	4b76      	ldr	r3, [pc, #472]	; (8002480 <EDO_5+0x278>)
 80022a6:	781b      	ldrb	r3, [r3, #0]
 80022a8:	2b00      	cmp	r3, #0
 80022aa:	d107      	bne.n	80022bc <EDO_5+0xb4>
	{
		HAL_LCD_Write_ascii('>',60,1);
 80022ac:	2201      	movs	r2, #1
 80022ae:	213c      	movs	r1, #60	; 0x3c
 80022b0:	203e      	movs	r0, #62	; 0x3e
 80022b2:	f001 fe8b 	bl	8003fcc <HAL_LCD_Write_ascii>
		rgb_verde();
 80022b6:	f001 ffa2 	bl	80041fe <rgb_verde>
 80022ba:	e07e      	b.n	80023ba <EDO_5+0x1b2>
	}
	else  if (alarma3==active && alarma1 ==inactive && alarma2 ==inactive)
 80022bc:	4b70      	ldr	r3, [pc, #448]	; (8002480 <EDO_5+0x278>)
 80022be:	781b      	ldrb	r3, [r3, #0]
 80022c0:	2b01      	cmp	r3, #1
 80022c2:	d10f      	bne.n	80022e4 <EDO_5+0xdc>
 80022c4:	4b6c      	ldr	r3, [pc, #432]	; (8002478 <EDO_5+0x270>)
 80022c6:	781b      	ldrb	r3, [r3, #0]
 80022c8:	2b00      	cmp	r3, #0
 80022ca:	d10b      	bne.n	80022e4 <EDO_5+0xdc>
 80022cc:	4b6b      	ldr	r3, [pc, #428]	; (800247c <EDO_5+0x274>)
 80022ce:	781b      	ldrb	r3, [r3, #0]
 80022d0:	2b00      	cmp	r3, #0
 80022d2:	d107      	bne.n	80022e4 <EDO_5+0xdc>
	{
		HAL_LCD_Write_ascii('>',48,2);
 80022d4:	2202      	movs	r2, #2
 80022d6:	2130      	movs	r1, #48	; 0x30
 80022d8:	203e      	movs	r0, #62	; 0x3e
 80022da:	f001 fe77 	bl	8003fcc <HAL_LCD_Write_ascii>
		rgb_azul();
 80022de:	f001 ff9b 	bl	8004218 <rgb_azul>
 80022e2:	e06a      	b.n	80023ba <EDO_5+0x1b2>
	}
	else if (alarma1==active && alarma2 == active && alarma3 ==inactive)
 80022e4:	4b64      	ldr	r3, [pc, #400]	; (8002478 <EDO_5+0x270>)
 80022e6:	781b      	ldrb	r3, [r3, #0]
 80022e8:	2b01      	cmp	r3, #1
 80022ea:	d119      	bne.n	8002320 <EDO_5+0x118>
 80022ec:	4b63      	ldr	r3, [pc, #396]	; (800247c <EDO_5+0x274>)
 80022ee:	781b      	ldrb	r3, [r3, #0]
 80022f0:	2b01      	cmp	r3, #1
 80022f2:	d115      	bne.n	8002320 <EDO_5+0x118>
 80022f4:	4b62      	ldr	r3, [pc, #392]	; (8002480 <EDO_5+0x278>)
 80022f6:	781b      	ldrb	r3, [r3, #0]
 80022f8:	2b00      	cmp	r3, #0
 80022fa:	d111      	bne.n	8002320 <EDO_5+0x118>
	{
		rgb_amarillo();
 80022fc:	f001 ff99 	bl	8004232 <rgb_amarillo>
		HAL_LCD_Write_ascii('>',60,1);
 8002300:	2201      	movs	r2, #1
 8002302:	213c      	movs	r1, #60	; 0x3c
 8002304:	203e      	movs	r0, #62	; 0x3e
 8002306:	f001 fe61 	bl	8003fcc <HAL_LCD_Write_ascii>
		HAL_LCD_Write_ascii('>',30,1);
 800230a:	2201      	movs	r2, #1
 800230c:	211e      	movs	r1, #30
 800230e:	203e      	movs	r0, #62	; 0x3e
 8002310:	f001 fe5c 	bl	8003fcc <HAL_LCD_Write_ascii>
		HAL_LCD_Write_ascii(' ',48,2);
 8002314:	2202      	movs	r2, #2
 8002316:	2130      	movs	r1, #48	; 0x30
 8002318:	2020      	movs	r0, #32
 800231a:	f001 fe57 	bl	8003fcc <HAL_LCD_Write_ascii>
 800231e:	e04c      	b.n	80023ba <EDO_5+0x1b2>
	}
	else if (alarma1==inactive && alarma2 == active && alarma3 ==active)
 8002320:	4b55      	ldr	r3, [pc, #340]	; (8002478 <EDO_5+0x270>)
 8002322:	781b      	ldrb	r3, [r3, #0]
 8002324:	2b00      	cmp	r3, #0
 8002326:	d119      	bne.n	800235c <EDO_5+0x154>
 8002328:	4b54      	ldr	r3, [pc, #336]	; (800247c <EDO_5+0x274>)
 800232a:	781b      	ldrb	r3, [r3, #0]
 800232c:	2b01      	cmp	r3, #1
 800232e:	d115      	bne.n	800235c <EDO_5+0x154>
 8002330:	4b53      	ldr	r3, [pc, #332]	; (8002480 <EDO_5+0x278>)
 8002332:	781b      	ldrb	r3, [r3, #0]
 8002334:	2b01      	cmp	r3, #1
 8002336:	d111      	bne.n	800235c <EDO_5+0x154>
	{
		rgb_celeste();
 8002338:	f001 ff88 	bl	800424c <rgb_celeste>
		HAL_LCD_Write_ascii('>',48,2);
 800233c:	2202      	movs	r2, #2
 800233e:	2130      	movs	r1, #48	; 0x30
 8002340:	203e      	movs	r0, #62	; 0x3e
 8002342:	f001 fe43 	bl	8003fcc <HAL_LCD_Write_ascii>
		HAL_LCD_Write_ascii('>',60,1);
 8002346:	2201      	movs	r2, #1
 8002348:	213c      	movs	r1, #60	; 0x3c
 800234a:	203e      	movs	r0, #62	; 0x3e
 800234c:	f001 fe3e 	bl	8003fcc <HAL_LCD_Write_ascii>
		HAL_LCD_Write_ascii(' ',30,1);
 8002350:	2201      	movs	r2, #1
 8002352:	211e      	movs	r1, #30
 8002354:	2020      	movs	r0, #32
 8002356:	f001 fe39 	bl	8003fcc <HAL_LCD_Write_ascii>
 800235a:	e02e      	b.n	80023ba <EDO_5+0x1b2>
	}
	else if (alarma1==active && alarma2 == inactive && alarma3 ==active)
 800235c:	4b46      	ldr	r3, [pc, #280]	; (8002478 <EDO_5+0x270>)
 800235e:	781b      	ldrb	r3, [r3, #0]
 8002360:	2b01      	cmp	r3, #1
 8002362:	d119      	bne.n	8002398 <EDO_5+0x190>
 8002364:	4b45      	ldr	r3, [pc, #276]	; (800247c <EDO_5+0x274>)
 8002366:	781b      	ldrb	r3, [r3, #0]
 8002368:	2b00      	cmp	r3, #0
 800236a:	d115      	bne.n	8002398 <EDO_5+0x190>
 800236c:	4b44      	ldr	r3, [pc, #272]	; (8002480 <EDO_5+0x278>)
 800236e:	781b      	ldrb	r3, [r3, #0]
 8002370:	2b01      	cmp	r3, #1
 8002372:	d111      	bne.n	8002398 <EDO_5+0x190>
	{
		rgb_morado();
 8002374:	f001 ff77 	bl	8004266 <rgb_morado>
		HAL_LCD_Write_ascii('>',30,1);
 8002378:	2201      	movs	r2, #1
 800237a:	211e      	movs	r1, #30
 800237c:	203e      	movs	r0, #62	; 0x3e
 800237e:	f001 fe25 	bl	8003fcc <HAL_LCD_Write_ascii>
		HAL_LCD_Write_ascii('>',48,2);
 8002382:	2202      	movs	r2, #2
 8002384:	2130      	movs	r1, #48	; 0x30
 8002386:	203e      	movs	r0, #62	; 0x3e
 8002388:	f001 fe20 	bl	8003fcc <HAL_LCD_Write_ascii>
		HAL_LCD_Write_ascii(' ',60,1);
 800238c:	2201      	movs	r2, #1
 800238e:	213c      	movs	r1, #60	; 0x3c
 8002390:	2020      	movs	r0, #32
 8002392:	f001 fe1b 	bl	8003fcc <HAL_LCD_Write_ascii>
 8002396:	e010      	b.n	80023ba <EDO_5+0x1b2>
	}
	else
	{
		rgb_blanco();
 8002398:	f001 ff72 	bl	8004280 <rgb_blanco>
		HAL_LCD_Write_ascii('>',30,1);
 800239c:	2201      	movs	r2, #1
 800239e:	211e      	movs	r1, #30
 80023a0:	203e      	movs	r0, #62	; 0x3e
 80023a2:	f001 fe13 	bl	8003fcc <HAL_LCD_Write_ascii>
		HAL_LCD_Write_ascii('>',48,2);
 80023a6:	2202      	movs	r2, #2
 80023a8:	2130      	movs	r1, #48	; 0x30
 80023aa:	203e      	movs	r0, #62	; 0x3e
 80023ac:	f001 fe0e 	bl	8003fcc <HAL_LCD_Write_ascii>
		HAL_LCD_Write_ascii('>',60,1);
 80023b0:	2201      	movs	r2, #1
 80023b2:	213c      	movs	r1, #60	; 0x3c
 80023b4:	203e      	movs	r0, #62	; 0x3e
 80023b6:	f001 fe09 	bl	8003fcc <HAL_LCD_Write_ascii>
	}

	if((Minuto-tiempobuzer) >= 2)
 80023ba:	4b32      	ldr	r3, [pc, #200]	; (8002484 <EDO_5+0x27c>)
 80023bc:	781b      	ldrb	r3, [r3, #0]
 80023be:	461a      	mov	r2, r3
 80023c0:	4b31      	ldr	r3, [pc, #196]	; (8002488 <EDO_5+0x280>)
 80023c2:	781b      	ldrb	r3, [r3, #0]
 80023c4:	1ad3      	subs	r3, r2, r3
 80023c6:	2b01      	cmp	r3, #1
 80023c8:	dd02      	ble.n	80023d0 <EDO_5+0x1c8>
		HAL_Buzzer_State(0);
 80023ca:	2000      	movs	r0, #0
 80023cc:	f001 fcde 	bl	8003d8c <HAL_Buzzer_State>

	if(btnC == 1 && btnC != btnCa){
 80023d0:	f9b7 3018 	ldrsh.w	r3, [r7, #24]
 80023d4:	2b01      	cmp	r3, #1
 80023d6:	d130      	bne.n	800243a <EDO_5+0x232>
 80023d8:	4b2c      	ldr	r3, [pc, #176]	; (800248c <EDO_5+0x284>)
 80023da:	f9b3 3000 	ldrsh.w	r3, [r3]
 80023de:	f9b7 2018 	ldrsh.w	r2, [r7, #24]
 80023e2:	429a      	cmp	r2, r3
 80023e4:	d029      	beq.n	800243a <EDO_5+0x232>
		// Cambio de estado
		EA = E3;
 80023e6:	4b2a      	ldr	r3, [pc, #168]	; (8002490 <EDO_5+0x288>)
 80023e8:	2203      	movs	r2, #3
 80023ea:	701a      	strb	r2, [r3, #0]
		first = 0;
 80023ec:	4b1c      	ldr	r3, [pc, #112]	; (8002460 <EDO_5+0x258>)
 80023ee:	2200      	movs	r2, #0
 80023f0:	801a      	strh	r2, [r3, #0]
		inicio2 = 0;
 80023f2:	4b28      	ldr	r3, [pc, #160]	; (8002494 <EDO_5+0x28c>)
 80023f4:	2200      	movs	r2, #0
 80023f6:	701a      	strb	r2, [r3, #0]
		rgb_apagado();
 80023f8:	f001 ff4f 	bl	800429a <rgb_apagado>
		HAL_LCD_Clear();
 80023fc:	f001 fd8f 	bl	8003f1e <HAL_LCD_Clear>
		HAL_Buzzer_State(0);
 8002400:	2000      	movs	r0, #0
 8002402:	f001 fcc3 	bl	8003d8c <HAL_Buzzer_State>
		HAL_Get_ActualTime(&Hora,&Minuto,&Segundo);
 8002406:	4a24      	ldr	r2, [pc, #144]	; (8002498 <EDO_5+0x290>)
 8002408:	491e      	ldr	r1, [pc, #120]	; (8002484 <EDO_5+0x27c>)
 800240a:	4824      	ldr	r0, [pc, #144]	; (800249c <EDO_5+0x294>)
 800240c:	f001 ff58 	bl	80042c0 <HAL_Get_ActualTime>
		if(alarma1==active)
 8002410:	4b19      	ldr	r3, [pc, #100]	; (8002478 <EDO_5+0x270>)
 8002412:	781b      	ldrb	r3, [r3, #0]
 8002414:	2b01      	cmp	r3, #1
 8002416:	d102      	bne.n	800241e <EDO_5+0x216>
			alarma1=inactive;
 8002418:	4b17      	ldr	r3, [pc, #92]	; (8002478 <EDO_5+0x270>)
 800241a:	2200      	movs	r2, #0
 800241c:	701a      	strb	r2, [r3, #0]
		if(alarma2==active)
 800241e:	4b17      	ldr	r3, [pc, #92]	; (800247c <EDO_5+0x274>)
 8002420:	781b      	ldrb	r3, [r3, #0]
 8002422:	2b01      	cmp	r3, #1
 8002424:	d102      	bne.n	800242c <EDO_5+0x224>
			alarma2=inactive;
 8002426:	4b15      	ldr	r3, [pc, #84]	; (800247c <EDO_5+0x274>)
 8002428:	2200      	movs	r2, #0
 800242a:	701a      	strb	r2, [r3, #0]
		if(alarma3==active)
 800242c:	4b14      	ldr	r3, [pc, #80]	; (8002480 <EDO_5+0x278>)
 800242e:	781b      	ldrb	r3, [r3, #0]
 8002430:	2b01      	cmp	r3, #1
 8002432:	d102      	bne.n	800243a <EDO_5+0x232>
			alarma3=inactive;
 8002434:	4b12      	ldr	r3, [pc, #72]	; (8002480 <EDO_5+0x278>)
 8002436:	2200      	movs	r2, #0
 8002438:	701a      	strb	r2, [r3, #0]
	}
	estado_Anterior(btnU, btnD, btnL, btnR, btnC);
 800243a:	f9b7 4000 	ldrsh.w	r4, [r7]
 800243e:	f9b7 2002 	ldrsh.w	r2, [r7, #2]
 8002442:	f9b7 1004 	ldrsh.w	r1, [r7, #4]
 8002446:	f9b7 0006 	ldrsh.w	r0, [r7, #6]
 800244a:	f9b7 3018 	ldrsh.w	r3, [r7, #24]
 800244e:	9300      	str	r3, [sp, #0]
 8002450:	4623      	mov	r3, r4
 8002452:	f7ff f92b 	bl	80016ac <estado_Anterior>
}
 8002456:	bf00      	nop
 8002458:	370c      	adds	r7, #12
 800245a:	46bd      	mov	sp, r7
 800245c:	bd90      	pop	{r4, r7, pc}
 800245e:	bf00      	nop
 8002460:	2000071c 	.word	0x2000071c
 8002464:	200000fc 	.word	0x200000fc
 8002468:	20000111 	.word	0x20000111
 800246c:	20000126 	.word	0x20000126
 8002470:	2000013b 	.word	0x2000013b
 8002474:	20000150 	.word	0x20000150
 8002478:	2000073a 	.word	0x2000073a
 800247c:	20000748 	.word	0x20000748
 8002480:	2000073e 	.word	0x2000073e
 8002484:	20000739 	.word	0x20000739
 8002488:	20000745 	.word	0x20000745
 800248c:	20000730 	.word	0x20000730
 8002490:	20000718 	.word	0x20000718
 8002494:	20000722 	.word	0x20000722
 8002498:	20000741 	.word	0x20000741
 800249c:	20000747 	.word	0x20000747

080024a0 <EDO_6>:

void EDO_6(short btnU, short btnD, short btnL, short btnR, short btnC){
 80024a0:	b590      	push	{r4, r7, lr}
 80024a2:	b085      	sub	sp, #20
 80024a4:	af02      	add	r7, sp, #8
 80024a6:	4604      	mov	r4, r0
 80024a8:	4608      	mov	r0, r1
 80024aa:	4611      	mov	r1, r2
 80024ac:	461a      	mov	r2, r3
 80024ae:	4623      	mov	r3, r4
 80024b0:	80fb      	strh	r3, [r7, #6]
 80024b2:	4603      	mov	r3, r0
 80024b4:	80bb      	strh	r3, [r7, #4]
 80024b6:	460b      	mov	r3, r1
 80024b8:	807b      	strh	r3, [r7, #2]
 80024ba:	4613      	mov	r3, r2
 80024bc:	803b      	strh	r3, [r7, #0]
	// Codigo de estado inicio

	if(btnC == 1 && btnC != btnCa){
 80024be:	f9b7 3018 	ldrsh.w	r3, [r7, #24]
 80024c2:	2b01      	cmp	r3, #1
 80024c4:	d10e      	bne.n	80024e4 <EDO_6+0x44>
 80024c6:	4b10      	ldr	r3, [pc, #64]	; (8002508 <EDO_6+0x68>)
 80024c8:	f9b3 3000 	ldrsh.w	r3, [r3]
 80024cc:	f9b7 2018 	ldrsh.w	r2, [r7, #24]
 80024d0:	429a      	cmp	r2, r3
 80024d2:	d007      	beq.n	80024e4 <EDO_6+0x44>
		// Cambio de estado
		EA = E3;
 80024d4:	4b0d      	ldr	r3, [pc, #52]	; (800250c <EDO_6+0x6c>)
 80024d6:	2203      	movs	r2, #3
 80024d8:	701a      	strb	r2, [r3, #0]
		first = 0;
 80024da:	4b0d      	ldr	r3, [pc, #52]	; (8002510 <EDO_6+0x70>)
 80024dc:	2200      	movs	r2, #0
 80024de:	801a      	strh	r2, [r3, #0]
		HAL_LCD_Clear();
 80024e0:	f001 fd1d 	bl	8003f1e <HAL_LCD_Clear>
	}
	estado_Anterior(btnU, btnD, btnL, btnR, btnC);
 80024e4:	f9b7 4000 	ldrsh.w	r4, [r7]
 80024e8:	f9b7 2002 	ldrsh.w	r2, [r7, #2]
 80024ec:	f9b7 1004 	ldrsh.w	r1, [r7, #4]
 80024f0:	f9b7 0006 	ldrsh.w	r0, [r7, #6]
 80024f4:	f9b7 3018 	ldrsh.w	r3, [r7, #24]
 80024f8:	9300      	str	r3, [sp, #0]
 80024fa:	4623      	mov	r3, r4
 80024fc:	f7ff f8d6 	bl	80016ac <estado_Anterior>
}
 8002500:	bf00      	nop
 8002502:	370c      	adds	r7, #12
 8002504:	46bd      	mov	sp, r7
 8002506:	bd90      	pop	{r4, r7, pc}
 8002508:	20000730 	.word	0x20000730
 800250c:	20000718 	.word	0x20000718
 8002510:	2000071c 	.word	0x2000071c

08002514 <EDO_7>:

void EDO_7(short btnU, short btnD, short btnL, short btnR, short btnC){
 8002514:	b590      	push	{r4, r7, lr}
 8002516:	b085      	sub	sp, #20
 8002518:	af02      	add	r7, sp, #8
 800251a:	4604      	mov	r4, r0
 800251c:	4608      	mov	r0, r1
 800251e:	4611      	mov	r1, r2
 8002520:	461a      	mov	r2, r3
 8002522:	4623      	mov	r3, r4
 8002524:	80fb      	strh	r3, [r7, #6]
 8002526:	4603      	mov	r3, r0
 8002528:	80bb      	strh	r3, [r7, #4]
 800252a:	460b      	mov	r3, r1
 800252c:	807b      	strh	r3, [r7, #2]
 800252e:	4613      	mov	r3, r2
 8002530:	803b      	strh	r3, [r7, #0]
	//Intervalos pastillas
	if (first==0)
 8002532:	4b37      	ldr	r3, [pc, #220]	; (8002610 <EDO_7+0xfc>)
 8002534:	f9b3 3000 	ldrsh.w	r3, [r3]
 8002538:	2b00      	cmp	r3, #0
 800253a:	d143      	bne.n	80025c4 <EDO_7+0xb0>
	{
		HAL_LCD_Write_AsciiString(word[alarmas],42,0);
 800253c:	2200      	movs	r2, #0
 800253e:	212a      	movs	r1, #42	; 0x2a
 8002540:	4834      	ldr	r0, [pc, #208]	; (8002614 <EDO_7+0x100>)
 8002542:	f001 fdab 	bl	800409c <HAL_LCD_Write_AsciiString>
		HAL_LCD_Write_AsciiString(word[rojo],30,1);
 8002546:	2201      	movs	r2, #1
 8002548:	211e      	movs	r1, #30
 800254a:	4833      	ldr	r0, [pc, #204]	; (8002618 <EDO_7+0x104>)
 800254c:	f001 fda6 	bl	800409c <HAL_LCD_Write_AsciiString>
		HAL_LCD_Write_AsciiString(word[verde],30,2);
 8002550:	2202      	movs	r2, #2
 8002552:	211e      	movs	r1, #30
 8002554:	4831      	ldr	r0, [pc, #196]	; (800261c <EDO_7+0x108>)
 8002556:	f001 fda1 	bl	800409c <HAL_LCD_Write_AsciiString>
		HAL_LCD_Write_AsciiString(word[azul],30,3);
 800255a:	2203      	movs	r2, #3
 800255c:	211e      	movs	r1, #30
 800255e:	4830      	ldr	r0, [pc, #192]	; (8002620 <EDO_7+0x10c>)
 8002560:	f001 fd9c 	bl	800409c <HAL_LCD_Write_AsciiString>
		HAL_LCD_Write_ascii(':',78,1);
 8002564:	2201      	movs	r2, #1
 8002566:	214e      	movs	r1, #78	; 0x4e
 8002568:	203a      	movs	r0, #58	; 0x3a
 800256a:	f001 fd2f 	bl	8003fcc <HAL_LCD_Write_ascii>
		HAL_LCD_Write_ascii(':',78,2);
 800256e:	2202      	movs	r2, #2
 8002570:	214e      	movs	r1, #78	; 0x4e
 8002572:	203a      	movs	r0, #58	; 0x3a
 8002574:	f001 fd2a 	bl	8003fcc <HAL_LCD_Write_ascii>
		HAL_LCD_Write_ascii(':',78,3);
 8002578:	2203      	movs	r2, #3
 800257a:	214e      	movs	r1, #78	; 0x4e
 800257c:	203a      	movs	r0, #58	; 0x3a
 800257e:	f001 fd25 	bl	8003fcc <HAL_LCD_Write_ascii>
		HAL_LCD_Write_Number(&IntervaloH1,66,1);
 8002582:	2201      	movs	r2, #1
 8002584:	2142      	movs	r1, #66	; 0x42
 8002586:	4827      	ldr	r0, [pc, #156]	; (8002624 <EDO_7+0x110>)
 8002588:	f001 fdb8 	bl	80040fc <HAL_LCD_Write_Number>
		HAL_LCD_Write_Number(&IntervaloM1,84,1);
 800258c:	2201      	movs	r2, #1
 800258e:	2154      	movs	r1, #84	; 0x54
 8002590:	4825      	ldr	r0, [pc, #148]	; (8002628 <EDO_7+0x114>)
 8002592:	f001 fdb3 	bl	80040fc <HAL_LCD_Write_Number>
		HAL_LCD_Write_Number(&IntervaloH2,66,2);
 8002596:	2202      	movs	r2, #2
 8002598:	2142      	movs	r1, #66	; 0x42
 800259a:	4824      	ldr	r0, [pc, #144]	; (800262c <EDO_7+0x118>)
 800259c:	f001 fdae 	bl	80040fc <HAL_LCD_Write_Number>
		HAL_LCD_Write_Number(&IntervaloM2,84,2);
 80025a0:	2202      	movs	r2, #2
 80025a2:	2154      	movs	r1, #84	; 0x54
 80025a4:	4822      	ldr	r0, [pc, #136]	; (8002630 <EDO_7+0x11c>)
 80025a6:	f001 fda9 	bl	80040fc <HAL_LCD_Write_Number>
		HAL_LCD_Write_Number(&IntervaloH3,66,3);
 80025aa:	2203      	movs	r2, #3
 80025ac:	2142      	movs	r1, #66	; 0x42
 80025ae:	4821      	ldr	r0, [pc, #132]	; (8002634 <EDO_7+0x120>)
 80025b0:	f001 fda4 	bl	80040fc <HAL_LCD_Write_Number>
		HAL_LCD_Write_Number(&IntervaloM3,84,3);
 80025b4:	2203      	movs	r2, #3
 80025b6:	2154      	movs	r1, #84	; 0x54
 80025b8:	481f      	ldr	r0, [pc, #124]	; (8002638 <EDO_7+0x124>)
 80025ba:	f001 fd9f 	bl	80040fc <HAL_LCD_Write_Number>
		first=1;
 80025be:	4b14      	ldr	r3, [pc, #80]	; (8002610 <EDO_7+0xfc>)
 80025c0:	2201      	movs	r2, #1
 80025c2:	801a      	strh	r2, [r3, #0]
	}

	if(btnC == 1 && btnC != btnCa){
 80025c4:	f9b7 3018 	ldrsh.w	r3, [r7, #24]
 80025c8:	2b01      	cmp	r3, #1
 80025ca:	d10e      	bne.n	80025ea <EDO_7+0xd6>
 80025cc:	4b1b      	ldr	r3, [pc, #108]	; (800263c <EDO_7+0x128>)
 80025ce:	f9b3 3000 	ldrsh.w	r3, [r3]
 80025d2:	f9b7 2018 	ldrsh.w	r2, [r7, #24]
 80025d6:	429a      	cmp	r2, r3
 80025d8:	d007      	beq.n	80025ea <EDO_7+0xd6>
		// Cambio de estado
		first = 0;
 80025da:	4b0d      	ldr	r3, [pc, #52]	; (8002610 <EDO_7+0xfc>)
 80025dc:	2200      	movs	r2, #0
 80025de:	801a      	strh	r2, [r3, #0]
		HAL_LCD_Clear();
 80025e0:	f001 fc9d 	bl	8003f1e <HAL_LCD_Clear>
		EA=E3;
 80025e4:	4b16      	ldr	r3, [pc, #88]	; (8002640 <EDO_7+0x12c>)
 80025e6:	2203      	movs	r2, #3
 80025e8:	701a      	strb	r2, [r3, #0]
	}
	estado_Anterior(btnU, btnD, btnL, btnR, btnC);
 80025ea:	f9b7 4000 	ldrsh.w	r4, [r7]
 80025ee:	f9b7 2002 	ldrsh.w	r2, [r7, #2]
 80025f2:	f9b7 1004 	ldrsh.w	r1, [r7, #4]
 80025f6:	f9b7 0006 	ldrsh.w	r0, [r7, #6]
 80025fa:	f9b7 3018 	ldrsh.w	r3, [r7, #24]
 80025fe:	9300      	str	r3, [sp, #0]
 8002600:	4623      	mov	r3, r4
 8002602:	f7ff f853 	bl	80016ac <estado_Anterior>
}
 8002606:	bf00      	nop
 8002608:	370c      	adds	r7, #12
 800260a:	46bd      	mov	sp, r7
 800260c:	bd90      	pop	{r4, r7, pc}
 800260e:	bf00      	nop
 8002610:	2000071c 	.word	0x2000071c
 8002614:	20000165 	.word	0x20000165
 8002618:	20000111 	.word	0x20000111
 800261c:	20000126 	.word	0x20000126
 8002620:	2000013b 	.word	0x2000013b
 8002624:	20000740 	.word	0x20000740
 8002628:	2000073f 	.word	0x2000073f
 800262c:	20000742 	.word	0x20000742
 8002630:	20000743 	.word	0x20000743
 8002634:	20000749 	.word	0x20000749
 8002638:	2000073d 	.word	0x2000073d
 800263c:	20000730 	.word	0x20000730
 8002640:	20000718 	.word	0x20000718

08002644 <fsm>:
		{E5,EDO_5},
		{E6,EDO_6},
		{E7,EDO_7}
};

void fsm(short btnU, short btnD,short btnL, short btnR, short btnC){
 8002644:	b5b0      	push	{r4, r5, r7, lr}
 8002646:	b084      	sub	sp, #16
 8002648:	af02      	add	r7, sp, #8
 800264a:	4604      	mov	r4, r0
 800264c:	4608      	mov	r0, r1
 800264e:	4611      	mov	r1, r2
 8002650:	461a      	mov	r2, r3
 8002652:	4623      	mov	r3, r4
 8002654:	80fb      	strh	r3, [r7, #6]
 8002656:	4603      	mov	r3, r0
 8002658:	80bb      	strh	r3, [r7, #4]
 800265a:	460b      	mov	r3, r1
 800265c:	807b      	strh	r3, [r7, #2]
 800265e:	4613      	mov	r3, r2
 8002660:	803b      	strh	r3, [r7, #0]
	MDE[EA].func(btnU, btnD, btnL, btnR, btnC);
 8002662:	4b0b      	ldr	r3, [pc, #44]	; (8002690 <fsm+0x4c>)
 8002664:	781b      	ldrb	r3, [r3, #0]
 8002666:	4a0b      	ldr	r2, [pc, #44]	; (8002694 <fsm+0x50>)
 8002668:	00db      	lsls	r3, r3, #3
 800266a:	4413      	add	r3, r2
 800266c:	685c      	ldr	r4, [r3, #4]
 800266e:	f9b7 5000 	ldrsh.w	r5, [r7]
 8002672:	f9b7 2002 	ldrsh.w	r2, [r7, #2]
 8002676:	f9b7 1004 	ldrsh.w	r1, [r7, #4]
 800267a:	f9b7 0006 	ldrsh.w	r0, [r7, #6]
 800267e:	f9b7 3018 	ldrsh.w	r3, [r7, #24]
 8002682:	9300      	str	r3, [sp, #0]
 8002684:	462b      	mov	r3, r5
 8002686:	47a0      	blx	r4
}
 8002688:	bf00      	nop
 800268a:	3708      	adds	r7, #8
 800268c:	46bd      	mov	sp, r7
 800268e:	bdb0      	pop	{r4, r5, r7, pc}
 8002690:	20000718 	.word	0x20000718
 8002694:	200001bc 	.word	0x200001bc

08002698 <LL_RCC_EnableRTC>:
{
 8002698:	b480      	push	{r7}
 800269a:	af00      	add	r7, sp, #0
  SET_BIT(RCC->BDCR, RCC_BDCR_RTCEN);
 800269c:	4a05      	ldr	r2, [pc, #20]	; (80026b4 <LL_RCC_EnableRTC+0x1c>)
 800269e:	4b05      	ldr	r3, [pc, #20]	; (80026b4 <LL_RCC_EnableRTC+0x1c>)
 80026a0:	6a1b      	ldr	r3, [r3, #32]
 80026a2:	f443 4300 	orr.w	r3, r3, #32768	; 0x8000
 80026a6:	6213      	str	r3, [r2, #32]
}
 80026a8:	bf00      	nop
 80026aa:	46bd      	mov	sp, r7
 80026ac:	f85d 7b04 	ldr.w	r7, [sp], #4
 80026b0:	4770      	bx	lr
 80026b2:	bf00      	nop
 80026b4:	40021000 	.word	0x40021000

080026b8 <LL_RTC_EnableInitMode>:
  * @rmtoll ISR          INIT          LL_RTC_EnableInitMode
  * @param  RTCx RTC Instance
  * @retval None
  */
__STATIC_INLINE void LL_RTC_EnableInitMode(RTC_TypeDef *RTCx)
{
 80026b8:	b480      	push	{r7}
 80026ba:	b083      	sub	sp, #12
 80026bc:	af00      	add	r7, sp, #0
 80026be:	6078      	str	r0, [r7, #4]
  /* Set the Initialization mode */
  WRITE_REG(RTCx->ISR, RTC_INIT_MASK);
 80026c0:	687b      	ldr	r3, [r7, #4]
 80026c2:	f04f 32ff 	mov.w	r2, #4294967295
 80026c6:	60da      	str	r2, [r3, #12]
}
 80026c8:	bf00      	nop
 80026ca:	370c      	adds	r7, #12
 80026cc:	46bd      	mov	sp, r7
 80026ce:	f85d 7b04 	ldr.w	r7, [sp], #4
 80026d2:	4770      	bx	lr

080026d4 <LL_RTC_DisableInitMode>:
  * @rmtoll ISR          INIT          LL_RTC_DisableInitMode
  * @param  RTCx RTC Instance
  * @retval None
  */
__STATIC_INLINE void LL_RTC_DisableInitMode(RTC_TypeDef *RTCx)
{
 80026d4:	b480      	push	{r7}
 80026d6:	b083      	sub	sp, #12
 80026d8:	af00      	add	r7, sp, #0
 80026da:	6078      	str	r0, [r7, #4]
  /* Exit Initialization mode */
  WRITE_REG(RTCx->ISR, (uint32_t)~RTC_ISR_INIT);
 80026dc:	687b      	ldr	r3, [r7, #4]
 80026de:	f06f 0280 	mvn.w	r2, #128	; 0x80
 80026e2:	60da      	str	r2, [r3, #12]
}
 80026e4:	bf00      	nop
 80026e6:	370c      	adds	r7, #12
 80026e8:	46bd      	mov	sp, r7
 80026ea:	f85d 7b04 	ldr.w	r7, [sp], #4
 80026ee:	4770      	bx	lr

080026f0 <LL_RTC_SetAsynchPrescaler>:
  * @param  RTCx RTC Instance
  * @param  AsynchPrescaler Value between Min_Data = 0 and Max_Data = 0x7F
  * @retval None
  */
__STATIC_INLINE void LL_RTC_SetAsynchPrescaler(RTC_TypeDef *RTCx, uint32_t AsynchPrescaler)
{
 80026f0:	b480      	push	{r7}
 80026f2:	b083      	sub	sp, #12
 80026f4:	af00      	add	r7, sp, #0
 80026f6:	6078      	str	r0, [r7, #4]
 80026f8:	6039      	str	r1, [r7, #0]
  MODIFY_REG(RTCx->PRER, RTC_PRER_PREDIV_A, AsynchPrescaler << RTC_PRER_PREDIV_A_Pos);
 80026fa:	687b      	ldr	r3, [r7, #4]
 80026fc:	691b      	ldr	r3, [r3, #16]
 80026fe:	f423 02fe 	bic.w	r2, r3, #8323072	; 0x7f0000
 8002702:	683b      	ldr	r3, [r7, #0]
 8002704:	041b      	lsls	r3, r3, #16
 8002706:	431a      	orrs	r2, r3
 8002708:	687b      	ldr	r3, [r7, #4]
 800270a:	611a      	str	r2, [r3, #16]
}
 800270c:	bf00      	nop
 800270e:	370c      	adds	r7, #12
 8002710:	46bd      	mov	sp, r7
 8002712:	f85d 7b04 	ldr.w	r7, [sp], #4
 8002716:	4770      	bx	lr

08002718 <LL_RTC_SetSynchPrescaler>:
  * @param  RTCx RTC Instance
  * @param  SynchPrescaler Value between Min_Data = 0 and Max_Data = 0x7FFF
  * @retval None
  */
__STATIC_INLINE void LL_RTC_SetSynchPrescaler(RTC_TypeDef *RTCx, uint32_t SynchPrescaler)
{
 8002718:	b480      	push	{r7}
 800271a:	b083      	sub	sp, #12
 800271c:	af00      	add	r7, sp, #0
 800271e:	6078      	str	r0, [r7, #4]
 8002720:	6039      	str	r1, [r7, #0]
  MODIFY_REG(RTCx->PRER, RTC_PRER_PREDIV_S, SynchPrescaler);
 8002722:	687b      	ldr	r3, [r7, #4]
 8002724:	691b      	ldr	r3, [r3, #16]
 8002726:	f423 43ff 	bic.w	r3, r3, #32640	; 0x7f80
 800272a:	f023 037f 	bic.w	r3, r3, #127	; 0x7f
 800272e:	683a      	ldr	r2, [r7, #0]
 8002730:	431a      	orrs	r2, r3
 8002732:	687b      	ldr	r3, [r7, #4]
 8002734:	611a      	str	r2, [r3, #16]
}
 8002736:	bf00      	nop
 8002738:	370c      	adds	r7, #12
 800273a:	46bd      	mov	sp, r7
 800273c:	f85d 7b04 	ldr.w	r7, [sp], #4
 8002740:	4770      	bx	lr

08002742 <LL_RTC_EnableWriteProtection>:
  * @rmtoll WPR          KEY           LL_RTC_EnableWriteProtection
  * @param  RTCx RTC Instance
  * @retval None
  */
__STATIC_INLINE void LL_RTC_EnableWriteProtection(RTC_TypeDef *RTCx)
{
 8002742:	b480      	push	{r7}
 8002744:	b083      	sub	sp, #12
 8002746:	af00      	add	r7, sp, #0
 8002748:	6078      	str	r0, [r7, #4]
  WRITE_REG(RTCx->WPR, RTC_WRITE_PROTECTION_DISABLE);
 800274a:	687b      	ldr	r3, [r7, #4]
 800274c:	22ff      	movs	r2, #255	; 0xff
 800274e:	625a      	str	r2, [r3, #36]	; 0x24
}
 8002750:	bf00      	nop
 8002752:	370c      	adds	r7, #12
 8002754:	46bd      	mov	sp, r7
 8002756:	f85d 7b04 	ldr.w	r7, [sp], #4
 800275a:	4770      	bx	lr

0800275c <LL_RTC_DisableWriteProtection>:
  * @rmtoll WPR          KEY           LL_RTC_DisableWriteProtection
  * @param  RTCx RTC Instance
  * @retval None
  */
__STATIC_INLINE void LL_RTC_DisableWriteProtection(RTC_TypeDef *RTCx)
{
 800275c:	b480      	push	{r7}
 800275e:	b083      	sub	sp, #12
 8002760:	af00      	add	r7, sp, #0
 8002762:	6078      	str	r0, [r7, #4]
  WRITE_REG(RTCx->WPR, RTC_WRITE_PROTECTION_ENABLE_1);
 8002764:	687b      	ldr	r3, [r7, #4]
 8002766:	22ca      	movs	r2, #202	; 0xca
 8002768:	625a      	str	r2, [r3, #36]	; 0x24
  WRITE_REG(RTCx->WPR, RTC_WRITE_PROTECTION_ENABLE_2);
 800276a:	687b      	ldr	r3, [r7, #4]
 800276c:	2253      	movs	r2, #83	; 0x53
 800276e:	625a      	str	r2, [r3, #36]	; 0x24
}
 8002770:	bf00      	nop
 8002772:	370c      	adds	r7, #12
 8002774:	46bd      	mov	sp, r7
 8002776:	f85d 7b04 	ldr.w	r7, [sp], #4
 800277a:	4770      	bx	lr

0800277c <LL_RTC_TIME_GetHour>:
  *         TR           HU            LL_RTC_TIME_GetHour
  * @param  RTCx RTC Instance
  * @retval Value between Min_Data=0x01 and Max_Data=0x12 or between Min_Data=0x00 and Max_Data=0x23
  */
__STATIC_INLINE uint32_t LL_RTC_TIME_GetHour(RTC_TypeDef *RTCx)
{
 800277c:	b480      	push	{r7}
 800277e:	b083      	sub	sp, #12
 8002780:	af00      	add	r7, sp, #0
 8002782:	6078      	str	r0, [r7, #4]
  return (uint32_t)((READ_BIT(RTCx->TR, (RTC_TR_HT | RTC_TR_HU))) >> RTC_TR_HU_Pos);
 8002784:	687b      	ldr	r3, [r7, #4]
 8002786:	681b      	ldr	r3, [r3, #0]
 8002788:	0c1b      	lsrs	r3, r3, #16
 800278a:	f003 033f 	and.w	r3, r3, #63	; 0x3f
}
 800278e:	4618      	mov	r0, r3
 8002790:	370c      	adds	r7, #12
 8002792:	46bd      	mov	sp, r7
 8002794:	f85d 7b04 	ldr.w	r7, [sp], #4
 8002798:	4770      	bx	lr

0800279a <LL_RTC_TIME_GetMinute>:
  *         TR           MNU           LL_RTC_TIME_GetMinute
  * @param  RTCx RTC Instance
  * @retval Value between Min_Data=0x00 and Max_Data=0x59
  */
__STATIC_INLINE uint32_t LL_RTC_TIME_GetMinute(RTC_TypeDef *RTCx)
{
 800279a:	b480      	push	{r7}
 800279c:	b083      	sub	sp, #12
 800279e:	af00      	add	r7, sp, #0
 80027a0:	6078      	str	r0, [r7, #4]
  return (uint32_t)(READ_BIT(RTCx->TR, (RTC_TR_MNT | RTC_TR_MNU)) >> RTC_TR_MNU_Pos);
 80027a2:	687b      	ldr	r3, [r7, #4]
 80027a4:	681b      	ldr	r3, [r3, #0]
 80027a6:	0a1b      	lsrs	r3, r3, #8
 80027a8:	f003 037f 	and.w	r3, r3, #127	; 0x7f
}
 80027ac:	4618      	mov	r0, r3
 80027ae:	370c      	adds	r7, #12
 80027b0:	46bd      	mov	sp, r7
 80027b2:	f85d 7b04 	ldr.w	r7, [sp], #4
 80027b6:	4770      	bx	lr

080027b8 <LL_RTC_TIME_GetSecond>:
  *         TR           SU            LL_RTC_TIME_GetSecond
  * @param  RTCx RTC Instance
  * @retval Value between Min_Data=0x00 and Max_Data=0x59
  */
__STATIC_INLINE uint32_t LL_RTC_TIME_GetSecond(RTC_TypeDef *RTCx)
{
 80027b8:	b480      	push	{r7}
 80027ba:	b083      	sub	sp, #12
 80027bc:	af00      	add	r7, sp, #0
 80027be:	6078      	str	r0, [r7, #4]
  return (uint32_t)(READ_BIT(RTCx->TR, (RTC_TR_ST | RTC_TR_SU)) >> RTC_TR_SU_Pos);
 80027c0:	687b      	ldr	r3, [r7, #4]
 80027c2:	681b      	ldr	r3, [r3, #0]
 80027c4:	f003 037f 	and.w	r3, r3, #127	; 0x7f
}
 80027c8:	4618      	mov	r0, r3
 80027ca:	370c      	adds	r7, #12
 80027cc:	46bd      	mov	sp, r7
 80027ce:	f85d 7b04 	ldr.w	r7, [sp], #4
 80027d2:	4770      	bx	lr

080027d4 <LL_RTC_TIME_Config>:
  * @param  Minutes Value between Min_Data=0x00 and Max_Data=0x59
  * @param  Seconds Value between Min_Data=0x00 and Max_Data=0x59
  * @retval None
  */
__STATIC_INLINE void LL_RTC_TIME_Config(RTC_TypeDef *RTCx, uint32_t Format12_24, uint32_t Hours, uint32_t Minutes, uint32_t Seconds)
{
 80027d4:	b480      	push	{r7}
 80027d6:	b087      	sub	sp, #28
 80027d8:	af00      	add	r7, sp, #0
 80027da:	60f8      	str	r0, [r7, #12]
 80027dc:	60b9      	str	r1, [r7, #8]
 80027de:	607a      	str	r2, [r7, #4]
 80027e0:	603b      	str	r3, [r7, #0]
  uint32_t temp = 0U;
 80027e2:	2300      	movs	r3, #0
 80027e4:	617b      	str	r3, [r7, #20]

  temp = Format12_24                                                                                    | \
         (((Hours & 0xF0U) << (RTC_TR_HT_Pos - 4U)) | ((Hours & 0x0FU) << RTC_TR_HU_Pos))     | \
 80027e6:	687b      	ldr	r3, [r7, #4]
 80027e8:	041b      	lsls	r3, r3, #16
 80027ea:	f403 027f 	and.w	r2, r3, #16711680	; 0xff0000
  temp = Format12_24                                                                                    | \
 80027ee:	68bb      	ldr	r3, [r7, #8]
 80027f0:	431a      	orrs	r2, r3
         (((Minutes & 0xF0U) << (RTC_TR_MNT_Pos - 4U)) | ((Minutes & 0x0FU) << RTC_TR_MNU_Pos)) | \
 80027f2:	683b      	ldr	r3, [r7, #0]
 80027f4:	021b      	lsls	r3, r3, #8
 80027f6:	b29b      	uxth	r3, r3
         (((Hours & 0xF0U) << (RTC_TR_HT_Pos - 4U)) | ((Hours & 0x0FU) << RTC_TR_HU_Pos))     | \
 80027f8:	431a      	orrs	r2, r3
         (((Seconds & 0xF0U) << (RTC_TR_ST_Pos - 4U)) | ((Seconds & 0x0FU) << RTC_TR_SU_Pos));
 80027fa:	6a3b      	ldr	r3, [r7, #32]
 80027fc:	b2db      	uxtb	r3, r3
  temp = Format12_24                                                                                    | \
 80027fe:	4313      	orrs	r3, r2
 8002800:	617b      	str	r3, [r7, #20]
  MODIFY_REG(RTCx->TR, (RTC_TR_PM | RTC_TR_HT | RTC_TR_HU | RTC_TR_MNT | RTC_TR_MNU | RTC_TR_ST | RTC_TR_SU), temp);
 8002802:	68fb      	ldr	r3, [r7, #12]
 8002804:	681b      	ldr	r3, [r3, #0]
 8002806:	f023 137f 	bic.w	r3, r3, #8323199	; 0x7f007f
 800280a:	f423 43fe 	bic.w	r3, r3, #32512	; 0x7f00
 800280e:	697a      	ldr	r2, [r7, #20]
 8002810:	431a      	orrs	r2, r3
 8002812:	68fb      	ldr	r3, [r7, #12]
 8002814:	601a      	str	r2, [r3, #0]
}
 8002816:	bf00      	nop
 8002818:	371c      	adds	r7, #28
 800281a:	46bd      	mov	sp, r7
 800281c:	f85d 7b04 	ldr.w	r7, [sp], #4
 8002820:	4770      	bx	lr

08002822 <LL_RTC_BAK_SetRegister>:
  *         (*) value not defined in all devices.
  * @param  Data Value between Min_Data=0x00 and Max_Data=0xFFFFFFFF
  * @retval None
  */
__STATIC_INLINE void LL_RTC_BAK_SetRegister(RTC_TypeDef *RTCx, uint32_t BackupRegister, uint32_t Data)
{
 8002822:	b480      	push	{r7}
 8002824:	b087      	sub	sp, #28
 8002826:	af00      	add	r7, sp, #0
 8002828:	60f8      	str	r0, [r7, #12]
 800282a:	60b9      	str	r1, [r7, #8]
 800282c:	607a      	str	r2, [r7, #4]
  uint32_t tmp = 0U;
 800282e:	2300      	movs	r3, #0
 8002830:	617b      	str	r3, [r7, #20]

  tmp = (uint32_t)(&(RTCx->BKP0R));
 8002832:	68fb      	ldr	r3, [r7, #12]
 8002834:	3350      	adds	r3, #80	; 0x50
 8002836:	617b      	str	r3, [r7, #20]
  tmp += (BackupRegister * 4U);
 8002838:	68bb      	ldr	r3, [r7, #8]
 800283a:	009b      	lsls	r3, r3, #2
 800283c:	697a      	ldr	r2, [r7, #20]
 800283e:	4413      	add	r3, r2
 8002840:	617b      	str	r3, [r7, #20]

  /* Write the specified register */
  *(__IO uint32_t *)tmp = (uint32_t)Data;
 8002842:	697b      	ldr	r3, [r7, #20]
 8002844:	687a      	ldr	r2, [r7, #4]
 8002846:	601a      	str	r2, [r3, #0]
}
 8002848:	bf00      	nop
 800284a:	371c      	adds	r7, #28
 800284c:	46bd      	mov	sp, r7
 800284e:	f85d 7b04 	ldr.w	r7, [sp], #4
 8002852:	4770      	bx	lr

08002854 <LL_RTC_BAK_GetRegister>:
  *
  *         (*) value not defined in all devices.
  * @retval Value between Min_Data=0x00 and Max_Data=0xFFFFFFFF
  */
__STATIC_INLINE uint32_t LL_RTC_BAK_GetRegister(RTC_TypeDef *RTCx, uint32_t BackupRegister)
{
 8002854:	b480      	push	{r7}
 8002856:	b085      	sub	sp, #20
 8002858:	af00      	add	r7, sp, #0
 800285a:	6078      	str	r0, [r7, #4]
 800285c:	6039      	str	r1, [r7, #0]
  uint32_t tmp = 0U;
 800285e:	2300      	movs	r3, #0
 8002860:	60fb      	str	r3, [r7, #12]

  tmp = (uint32_t)(&(RTCx->BKP0R));
 8002862:	687b      	ldr	r3, [r7, #4]
 8002864:	3350      	adds	r3, #80	; 0x50
 8002866:	60fb      	str	r3, [r7, #12]
  tmp += (BackupRegister * 4U);
 8002868:	683b      	ldr	r3, [r7, #0]
 800286a:	009b      	lsls	r3, r3, #2
 800286c:	68fa      	ldr	r2, [r7, #12]
 800286e:	4413      	add	r3, r2
 8002870:	60fb      	str	r3, [r7, #12]

  /* Read the specified register */
  return (*(__IO uint32_t *)tmp);
 8002872:	68fb      	ldr	r3, [r7, #12]
 8002874:	681b      	ldr	r3, [r3, #0]
}
 8002876:	4618      	mov	r0, r3
 8002878:	3714      	adds	r7, #20
 800287a:	46bd      	mov	sp, r7
 800287c:	f85d 7b04 	ldr.w	r7, [sp], #4
 8002880:	4770      	bx	lr

08002882 <LL_RTC_IsActiveFlag_INIT>:
  * @rmtoll ISR          INITF         LL_RTC_IsActiveFlag_INIT
  * @param  RTCx RTC Instance
  * @retval State of bit (1 or 0).
  */
__STATIC_INLINE uint32_t LL_RTC_IsActiveFlag_INIT(RTC_TypeDef *RTCx)
{
 8002882:	b480      	push	{r7}
 8002884:	b083      	sub	sp, #12
 8002886:	af00      	add	r7, sp, #0
 8002888:	6078      	str	r0, [r7, #4]
  return (READ_BIT(RTCx->ISR, RTC_ISR_INITF) == (RTC_ISR_INITF));
 800288a:	687b      	ldr	r3, [r7, #4]
 800288c:	68db      	ldr	r3, [r3, #12]
 800288e:	f003 0340 	and.w	r3, r3, #64	; 0x40
 8002892:	2b40      	cmp	r3, #64	; 0x40
 8002894:	bf0c      	ite	eq
 8002896:	2301      	moveq	r3, #1
 8002898:	2300      	movne	r3, #0
 800289a:	b2db      	uxtb	r3, r3
}
 800289c:	4618      	mov	r0, r3
 800289e:	370c      	adds	r7, #12
 80028a0:	46bd      	mov	sp, r7
 80028a2:	f85d 7b04 	ldr.w	r7, [sp], #4
 80028a6:	4770      	bx	lr

080028a8 <LL_RTC_IsActiveFlag_RS>:
  * @rmtoll ISR          RSF           LL_RTC_IsActiveFlag_RS
  * @param  RTCx RTC Instance
  * @retval State of bit (1 or 0).
  */
__STATIC_INLINE uint32_t LL_RTC_IsActiveFlag_RS(RTC_TypeDef *RTCx)
{
 80028a8:	b480      	push	{r7}
 80028aa:	b083      	sub	sp, #12
 80028ac:	af00      	add	r7, sp, #0
 80028ae:	6078      	str	r0, [r7, #4]
  return (READ_BIT(RTCx->ISR, RTC_ISR_RSF) == (RTC_ISR_RSF));
 80028b0:	687b      	ldr	r3, [r7, #4]
 80028b2:	68db      	ldr	r3, [r3, #12]
 80028b4:	f003 0320 	and.w	r3, r3, #32
 80028b8:	2b20      	cmp	r3, #32
 80028ba:	bf0c      	ite	eq
 80028bc:	2301      	moveq	r3, #1
 80028be:	2300      	movne	r3, #0
 80028c0:	b2db      	uxtb	r3, r3
}
 80028c2:	4618      	mov	r0, r3
 80028c4:	370c      	adds	r7, #12
 80028c6:	46bd      	mov	sp, r7
 80028c8:	f85d 7b04 	ldr.w	r7, [sp], #4
 80028cc:	4770      	bx	lr

080028ce <LL_RTC_ClearFlag_RS>:
  * @rmtoll ISR          RSF           LL_RTC_ClearFlag_RS
  * @param  RTCx RTC Instance
  * @retval None
  */
__STATIC_INLINE void LL_RTC_ClearFlag_RS(RTC_TypeDef *RTCx)
{
 80028ce:	b480      	push	{r7}
 80028d0:	b083      	sub	sp, #12
 80028d2:	af00      	add	r7, sp, #0
 80028d4:	6078      	str	r0, [r7, #4]
  WRITE_REG(RTCx->ISR, (~((RTC_ISR_RSF | RTC_ISR_INIT) & 0x0000FFFFU) | (RTCx->ISR & RTC_ISR_INIT)));
 80028d6:	687b      	ldr	r3, [r7, #4]
 80028d8:	68db      	ldr	r3, [r3, #12]
 80028da:	f003 0380 	and.w	r3, r3, #128	; 0x80
 80028de:	f063 02a0 	orn	r2, r3, #160	; 0xa0
 80028e2:	687b      	ldr	r3, [r7, #4]
 80028e4:	60da      	str	r2, [r3, #12]
}
 80028e6:	bf00      	nop
 80028e8:	370c      	adds	r7, #12
 80028ea:	46bd      	mov	sp, r7
 80028ec:	f85d 7b04 	ldr.w	r7, [sp], #4
 80028f0:	4770      	bx	lr
	...

080028f4 <MX_RTC_Init>:

/* USER CODE END 0 */

/* RTC init function */
void MX_RTC_Init(void)
{
 80028f4:	b580      	push	{r7, lr}
 80028f6:	b086      	sub	sp, #24
 80028f8:	af00      	add	r7, sp, #0

  /* USER CODE BEGIN RTC_Init 0 */

  /* USER CODE END RTC_Init 0 */

  LL_RTC_InitTypeDef RTC_InitStruct = {0};
 80028fa:	f107 030c 	add.w	r3, r7, #12
 80028fe:	2200      	movs	r2, #0
 8002900:	601a      	str	r2, [r3, #0]
 8002902:	605a      	str	r2, [r3, #4]
 8002904:	609a      	str	r2, [r3, #8]
  LL_RTC_TimeTypeDef RTC_TimeStruct = {0};
 8002906:	1d3b      	adds	r3, r7, #4
 8002908:	2200      	movs	r2, #0
 800290a:	601a      	str	r2, [r3, #0]
 800290c:	605a      	str	r2, [r3, #4]
  LL_RTC_DateTypeDef RTC_DateStruct = {0};
 800290e:	2300      	movs	r3, #0
 8002910:	603b      	str	r3, [r7, #0]

  /* Peripheral clock enable */
  LL_RCC_EnableRTC();
 8002912:	f7ff fec1 	bl	8002698 <LL_RCC_EnableRTC>
  /* USER CODE BEGIN RTC_Init 1 */

  /* USER CODE END RTC_Init 1 */
  /** Initialize RTC and set the Time and Date
  */
  RTC_InitStruct.HourFormat = LL_RTC_HOURFORMAT_24HOUR;
 8002916:	2300      	movs	r3, #0
 8002918:	60fb      	str	r3, [r7, #12]
  RTC_InitStruct.AsynchPrescaler = 127;
 800291a:	237f      	movs	r3, #127	; 0x7f
 800291c:	613b      	str	r3, [r7, #16]
  RTC_InitStruct.SynchPrescaler = 255;
 800291e:	23ff      	movs	r3, #255	; 0xff
 8002920:	617b      	str	r3, [r7, #20]
  LL_RTC_Init(RTC, &RTC_InitStruct);
 8002922:	f107 030c 	add.w	r3, r7, #12
 8002926:	4619      	mov	r1, r3
 8002928:	481f      	ldr	r0, [pc, #124]	; (80029a8 <MX_RTC_Init+0xb4>)
 800292a:	f000 ff45 	bl	80037b8 <LL_RTC_Init>
  LL_RTC_SetAsynchPrescaler(RTC, 127);
 800292e:	217f      	movs	r1, #127	; 0x7f
 8002930:	481d      	ldr	r0, [pc, #116]	; (80029a8 <MX_RTC_Init+0xb4>)
 8002932:	f7ff fedd 	bl	80026f0 <LL_RTC_SetAsynchPrescaler>
  LL_RTC_SetSynchPrescaler(RTC, 255);
 8002936:	21ff      	movs	r1, #255	; 0xff
 8002938:	481b      	ldr	r0, [pc, #108]	; (80029a8 <MX_RTC_Init+0xb4>)
 800293a:	f7ff feed 	bl	8002718 <LL_RTC_SetSynchPrescaler>
  /** Initialize RTC and set the Time and Date
  */
  if(LL_RTC_BAK_GetRegister(RTC, LL_RTC_BKP_DR0) != 0x32F2){
 800293e:	2100      	movs	r1, #0
 8002940:	4819      	ldr	r0, [pc, #100]	; (80029a8 <MX_RTC_Init+0xb4>)
 8002942:	f7ff ff87 	bl	8002854 <LL_RTC_BAK_GetRegister>
 8002946:	4602      	mov	r2, r0
 8002948:	f243 23f2 	movw	r3, #13042	; 0x32f2
 800294c:	429a      	cmp	r2, r3
 800294e:	d01d      	beq.n	800298c <MX_RTC_Init+0x98>

  RTC_TimeStruct.Hours = 0;
 8002950:	2300      	movs	r3, #0
 8002952:	723b      	strb	r3, [r7, #8]
  RTC_TimeStruct.Minutes = 0;
 8002954:	2300      	movs	r3, #0
 8002956:	727b      	strb	r3, [r7, #9]
  RTC_TimeStruct.Seconds = 0;
 8002958:	2300      	movs	r3, #0
 800295a:	72bb      	strb	r3, [r7, #10]
  LL_RTC_TIME_Init(RTC, LL_RTC_FORMAT_BIN, &RTC_TimeStruct);
 800295c:	1d3b      	adds	r3, r7, #4
 800295e:	461a      	mov	r2, r3
 8002960:	2100      	movs	r1, #0
 8002962:	4811      	ldr	r0, [pc, #68]	; (80029a8 <MX_RTC_Init+0xb4>)
 8002964:	f000 ff58 	bl	8003818 <LL_RTC_TIME_Init>
  RTC_DateStruct.WeekDay = LL_RTC_WEEKDAY_MONDAY;
 8002968:	2301      	movs	r3, #1
 800296a:	703b      	strb	r3, [r7, #0]
  RTC_DateStruct.Month = LL_RTC_MONTH_JANUARY;
 800296c:	2301      	movs	r3, #1
 800296e:	707b      	strb	r3, [r7, #1]
  RTC_DateStruct.Year = 0;
 8002970:	2300      	movs	r3, #0
 8002972:	70fb      	strb	r3, [r7, #3]
  LL_RTC_DATE_Init(RTC, LL_RTC_FORMAT_BIN, &RTC_DateStruct);
 8002974:	463b      	mov	r3, r7
 8002976:	461a      	mov	r2, r3
 8002978:	2100      	movs	r1, #0
 800297a:	480b      	ldr	r0, [pc, #44]	; (80029a8 <MX_RTC_Init+0xb4>)
 800297c:	f000 fff2 	bl	8003964 <LL_RTC_DATE_Init>
    LL_RTC_BAK_SetRegister(RTC,LL_RTC_BKP_DR0,0x32F2);
 8002980:	f243 22f2 	movw	r2, #13042	; 0x32f2
 8002984:	2100      	movs	r1, #0
 8002986:	4808      	ldr	r0, [pc, #32]	; (80029a8 <MX_RTC_Init+0xb4>)
 8002988:	f7ff ff4b 	bl	8002822 <LL_RTC_BAK_SetRegister>
  }
  /* USER CODE BEGIN RTC_Init 2 */
  LL_RTC_DisableWriteProtection(RTC);
 800298c:	4806      	ldr	r0, [pc, #24]	; (80029a8 <MX_RTC_Init+0xb4>)
 800298e:	f7ff fee5 	bl	800275c <LL_RTC_DisableWriteProtection>
  MX_RTC_Enter_InitMode();
 8002992:	f000 f80b 	bl	80029ac <MX_RTC_Enter_InitMode>

  MX_RTC_Exit_InitMode();
 8002996:	f000 f819 	bl	80029cc <MX_RTC_Exit_InitMode>
  LL_RTC_EnableWriteProtection(RTC);
 800299a:	4803      	ldr	r0, [pc, #12]	; (80029a8 <MX_RTC_Init+0xb4>)
 800299c:	f7ff fed1 	bl	8002742 <LL_RTC_EnableWriteProtection>
  /* USER CODE END RTC_Init 2 */

}
 80029a0:	bf00      	nop
 80029a2:	3718      	adds	r7, #24
 80029a4:	46bd      	mov	sp, r7
 80029a6:	bd80      	pop	{r7, pc}
 80029a8:	40002800 	.word	0x40002800

080029ac <MX_RTC_Enter_InitMode>:

/* USER CODE BEGIN 1 */

/*This functions is to start the RTC initialization mode*/
void MX_RTC_Enter_InitMode(void)
{
 80029ac:	b580      	push	{r7, lr}
 80029ae:	af00      	add	r7, sp, #0
	LL_RTC_EnableInitMode(RTC);
 80029b0:	4805      	ldr	r0, [pc, #20]	; (80029c8 <MX_RTC_Enter_InitMode+0x1c>)
 80029b2:	f7ff fe81 	bl	80026b8 <LL_RTC_EnableInitMode>
	while (!LL_RTC_IsActiveFlag_INIT(RTC));
 80029b6:	bf00      	nop
 80029b8:	4803      	ldr	r0, [pc, #12]	; (80029c8 <MX_RTC_Enter_InitMode+0x1c>)
 80029ba:	f7ff ff62 	bl	8002882 <LL_RTC_IsActiveFlag_INIT>
 80029be:	4603      	mov	r3, r0
 80029c0:	2b00      	cmp	r3, #0
 80029c2:	d0f9      	beq.n	80029b8 <MX_RTC_Enter_InitMode+0xc>

	return;
 80029c4:	bf00      	nop
}
 80029c6:	bd80      	pop	{r7, pc}
 80029c8:	40002800 	.word	0x40002800

080029cc <MX_RTC_Exit_InitMode>:

/*This functions is to finish the RTC initialization mode*/
void MX_RTC_Exit_InitMode (void)
{
 80029cc:	b580      	push	{r7, lr}
 80029ce:	af00      	add	r7, sp, #0
	LL_RTC_DisableInitMode(RTC);
 80029d0:	4807      	ldr	r0, [pc, #28]	; (80029f0 <MX_RTC_Exit_InitMode+0x24>)
 80029d2:	f7ff fe7f 	bl	80026d4 <LL_RTC_DisableInitMode>
	LL_RTC_ClearFlag_RS(RTC);
 80029d6:	4806      	ldr	r0, [pc, #24]	; (80029f0 <MX_RTC_Exit_InitMode+0x24>)
 80029d8:	f7ff ff79 	bl	80028ce <LL_RTC_ClearFlag_RS>
	while (!LL_RTC_IsActiveFlag_RS(RTC));
 80029dc:	bf00      	nop
 80029de:	4804      	ldr	r0, [pc, #16]	; (80029f0 <MX_RTC_Exit_InitMode+0x24>)
 80029e0:	f7ff ff62 	bl	80028a8 <LL_RTC_IsActiveFlag_RS>
 80029e4:	4603      	mov	r3, r0
 80029e6:	2b00      	cmp	r3, #0
 80029e8:	d0f9      	beq.n	80029de <MX_RTC_Exit_InitMode+0x12>
}
 80029ea:	bf00      	nop
 80029ec:	bd80      	pop	{r7, pc}
 80029ee:	bf00      	nop
 80029f0:	40002800 	.word	0x40002800

080029f4 <MX_RTC_GetTime>:

/*This function returns the actual time*/
void MX_RTC_GetTime(uint8_t *hours, uint8_t *minutes, uint8_t *seconds)
{
 80029f4:	b590      	push	{r4, r7, lr}
 80029f6:	b085      	sub	sp, #20
 80029f8:	af00      	add	r7, sp, #0
 80029fa:	60f8      	str	r0, [r7, #12]
 80029fc:	60b9      	str	r1, [r7, #8]
 80029fe:	607a      	str	r2, [r7, #4]
	*hours   = __LL_RTC_CONVERT_BCD2BIN (LL_RTC_TIME_GetHour(RTC));
 8002a00:	482a      	ldr	r0, [pc, #168]	; (8002aac <MX_RTC_GetTime+0xb8>)
 8002a02:	f7ff febb 	bl	800277c <LL_RTC_TIME_GetHour>
 8002a06:	4603      	mov	r3, r0
 8002a08:	b2db      	uxtb	r3, r3
 8002a0a:	111b      	asrs	r3, r3, #4
 8002a0c:	b2db      	uxtb	r3, r3
 8002a0e:	f003 030f 	and.w	r3, r3, #15
 8002a12:	b2db      	uxtb	r3, r3
 8002a14:	461a      	mov	r2, r3
 8002a16:	0092      	lsls	r2, r2, #2
 8002a18:	4413      	add	r3, r2
 8002a1a:	005b      	lsls	r3, r3, #1
 8002a1c:	b2dc      	uxtb	r4, r3
 8002a1e:	4823      	ldr	r0, [pc, #140]	; (8002aac <MX_RTC_GetTime+0xb8>)
 8002a20:	f7ff feac 	bl	800277c <LL_RTC_TIME_GetHour>
 8002a24:	4603      	mov	r3, r0
 8002a26:	b2db      	uxtb	r3, r3
 8002a28:	f003 030f 	and.w	r3, r3, #15
 8002a2c:	b2db      	uxtb	r3, r3
 8002a2e:	4423      	add	r3, r4
 8002a30:	b2da      	uxtb	r2, r3
 8002a32:	68fb      	ldr	r3, [r7, #12]
 8002a34:	701a      	strb	r2, [r3, #0]
	*minutes = __LL_RTC_CONVERT_BCD2BIN (LL_RTC_TIME_GetMinute(RTC));
 8002a36:	481d      	ldr	r0, [pc, #116]	; (8002aac <MX_RTC_GetTime+0xb8>)
 8002a38:	f7ff feaf 	bl	800279a <LL_RTC_TIME_GetMinute>
 8002a3c:	4603      	mov	r3, r0
 8002a3e:	b2db      	uxtb	r3, r3
 8002a40:	111b      	asrs	r3, r3, #4
 8002a42:	b2db      	uxtb	r3, r3
 8002a44:	f003 030f 	and.w	r3, r3, #15
 8002a48:	b2db      	uxtb	r3, r3
 8002a4a:	461a      	mov	r2, r3
 8002a4c:	0092      	lsls	r2, r2, #2
 8002a4e:	4413      	add	r3, r2
 8002a50:	005b      	lsls	r3, r3, #1
 8002a52:	b2dc      	uxtb	r4, r3
 8002a54:	4815      	ldr	r0, [pc, #84]	; (8002aac <MX_RTC_GetTime+0xb8>)
 8002a56:	f7ff fea0 	bl	800279a <LL_RTC_TIME_GetMinute>
 8002a5a:	4603      	mov	r3, r0
 8002a5c:	b2db      	uxtb	r3, r3
 8002a5e:	f003 030f 	and.w	r3, r3, #15
 8002a62:	b2db      	uxtb	r3, r3
 8002a64:	4423      	add	r3, r4
 8002a66:	b2da      	uxtb	r2, r3
 8002a68:	68bb      	ldr	r3, [r7, #8]
 8002a6a:	701a      	strb	r2, [r3, #0]
	*seconds = __LL_RTC_CONVERT_BCD2BIN (LL_RTC_TIME_GetSecond(RTC));
 8002a6c:	480f      	ldr	r0, [pc, #60]	; (8002aac <MX_RTC_GetTime+0xb8>)
 8002a6e:	f7ff fea3 	bl	80027b8 <LL_RTC_TIME_GetSecond>
 8002a72:	4603      	mov	r3, r0
 8002a74:	b2db      	uxtb	r3, r3
 8002a76:	111b      	asrs	r3, r3, #4
 8002a78:	b2db      	uxtb	r3, r3
 8002a7a:	f003 030f 	and.w	r3, r3, #15
 8002a7e:	b2db      	uxtb	r3, r3
 8002a80:	461a      	mov	r2, r3
 8002a82:	0092      	lsls	r2, r2, #2
 8002a84:	4413      	add	r3, r2
 8002a86:	005b      	lsls	r3, r3, #1
 8002a88:	b2dc      	uxtb	r4, r3
 8002a8a:	4808      	ldr	r0, [pc, #32]	; (8002aac <MX_RTC_GetTime+0xb8>)
 8002a8c:	f7ff fe94 	bl	80027b8 <LL_RTC_TIME_GetSecond>
 8002a90:	4603      	mov	r3, r0
 8002a92:	b2db      	uxtb	r3, r3
 8002a94:	f003 030f 	and.w	r3, r3, #15
 8002a98:	b2db      	uxtb	r3, r3
 8002a9a:	4423      	add	r3, r4
 8002a9c:	b2da      	uxtb	r2, r3
 8002a9e:	687b      	ldr	r3, [r7, #4]
 8002aa0:	701a      	strb	r2, [r3, #0]
	return;
 8002aa2:	bf00      	nop
}
 8002aa4:	3714      	adds	r7, #20
 8002aa6:	46bd      	mov	sp, r7
 8002aa8:	bd90      	pop	{r4, r7, pc}
 8002aaa:	bf00      	nop
 8002aac:	40002800 	.word	0x40002800

08002ab0 <MX_RTC_SetTime>:
	return;
}

/*This function allows to set manually actual time*/
void MX_RTC_SetTime(uint8_t hour, uint8_t minutes, uint8_t seconds)
{
 8002ab0:	b5b0      	push	{r4, r5, r7, lr}
 8002ab2:	b084      	sub	sp, #16
 8002ab4:	af02      	add	r7, sp, #8
 8002ab6:	4603      	mov	r3, r0
 8002ab8:	71fb      	strb	r3, [r7, #7]
 8002aba:	460b      	mov	r3, r1
 8002abc:	71bb      	strb	r3, [r7, #6]
 8002abe:	4613      	mov	r3, r2
 8002ac0:	717b      	strb	r3, [r7, #5]
	LL_RTC_DisableWriteProtection(RTC);
 8002ac2:	482b      	ldr	r0, [pc, #172]	; (8002b70 <MX_RTC_SetTime+0xc0>)
 8002ac4:	f7ff fe4a 	bl	800275c <LL_RTC_DisableWriteProtection>
	MX_RTC_Enter_InitMode();
 8002ac8:	f7ff ff70 	bl	80029ac <MX_RTC_Enter_InitMode>
	LL_RTC_TIME_Config(RTC,LL_RTC_HOURFORMAT_24HOUR, __LL_RTC_CONVERT_BIN2BCD (hour), __LL_RTC_CONVERT_BIN2BCD (minutes), __LL_RTC_CONVERT_BIN2BCD (seconds));
 8002acc:	79fb      	ldrb	r3, [r7, #7]
 8002ace:	4a29      	ldr	r2, [pc, #164]	; (8002b74 <MX_RTC_SetTime+0xc4>)
 8002ad0:	fba2 2303 	umull	r2, r3, r2, r3
 8002ad4:	08db      	lsrs	r3, r3, #3
 8002ad6:	b2db      	uxtb	r3, r3
 8002ad8:	011b      	lsls	r3, r3, #4
 8002ada:	b2d8      	uxtb	r0, r3
 8002adc:	79fa      	ldrb	r2, [r7, #7]
 8002ade:	4b25      	ldr	r3, [pc, #148]	; (8002b74 <MX_RTC_SetTime+0xc4>)
 8002ae0:	fba3 1302 	umull	r1, r3, r3, r2
 8002ae4:	08d9      	lsrs	r1, r3, #3
 8002ae6:	460b      	mov	r3, r1
 8002ae8:	009b      	lsls	r3, r3, #2
 8002aea:	440b      	add	r3, r1
 8002aec:	005b      	lsls	r3, r3, #1
 8002aee:	1ad3      	subs	r3, r2, r3
 8002af0:	b2db      	uxtb	r3, r3
 8002af2:	4303      	orrs	r3, r0
 8002af4:	b2db      	uxtb	r3, r3
 8002af6:	461c      	mov	r4, r3
 8002af8:	79bb      	ldrb	r3, [r7, #6]
 8002afa:	4a1e      	ldr	r2, [pc, #120]	; (8002b74 <MX_RTC_SetTime+0xc4>)
 8002afc:	fba2 2303 	umull	r2, r3, r2, r3
 8002b00:	08db      	lsrs	r3, r3, #3
 8002b02:	b2db      	uxtb	r3, r3
 8002b04:	011b      	lsls	r3, r3, #4
 8002b06:	b2d8      	uxtb	r0, r3
 8002b08:	79ba      	ldrb	r2, [r7, #6]
 8002b0a:	4b1a      	ldr	r3, [pc, #104]	; (8002b74 <MX_RTC_SetTime+0xc4>)
 8002b0c:	fba3 1302 	umull	r1, r3, r3, r2
 8002b10:	08d9      	lsrs	r1, r3, #3
 8002b12:	460b      	mov	r3, r1
 8002b14:	009b      	lsls	r3, r3, #2
 8002b16:	440b      	add	r3, r1
 8002b18:	005b      	lsls	r3, r3, #1
 8002b1a:	1ad3      	subs	r3, r2, r3
 8002b1c:	b2db      	uxtb	r3, r3
 8002b1e:	4303      	orrs	r3, r0
 8002b20:	b2db      	uxtb	r3, r3
 8002b22:	461d      	mov	r5, r3
 8002b24:	797b      	ldrb	r3, [r7, #5]
 8002b26:	4a13      	ldr	r2, [pc, #76]	; (8002b74 <MX_RTC_SetTime+0xc4>)
 8002b28:	fba2 2303 	umull	r2, r3, r2, r3
 8002b2c:	08db      	lsrs	r3, r3, #3
 8002b2e:	b2db      	uxtb	r3, r3
 8002b30:	011b      	lsls	r3, r3, #4
 8002b32:	b2d8      	uxtb	r0, r3
 8002b34:	797a      	ldrb	r2, [r7, #5]
 8002b36:	4b0f      	ldr	r3, [pc, #60]	; (8002b74 <MX_RTC_SetTime+0xc4>)
 8002b38:	fba3 1302 	umull	r1, r3, r3, r2
 8002b3c:	08d9      	lsrs	r1, r3, #3
 8002b3e:	460b      	mov	r3, r1
 8002b40:	009b      	lsls	r3, r3, #2
 8002b42:	440b      	add	r3, r1
 8002b44:	005b      	lsls	r3, r3, #1
 8002b46:	1ad3      	subs	r3, r2, r3
 8002b48:	b2db      	uxtb	r3, r3
 8002b4a:	4303      	orrs	r3, r0
 8002b4c:	b2db      	uxtb	r3, r3
 8002b4e:	9300      	str	r3, [sp, #0]
 8002b50:	462b      	mov	r3, r5
 8002b52:	4622      	mov	r2, r4
 8002b54:	2100      	movs	r1, #0
 8002b56:	4806      	ldr	r0, [pc, #24]	; (8002b70 <MX_RTC_SetTime+0xc0>)
 8002b58:	f7ff fe3c 	bl	80027d4 <LL_RTC_TIME_Config>
	MX_RTC_Exit_InitMode();
 8002b5c:	f7ff ff36 	bl	80029cc <MX_RTC_Exit_InitMode>
	LL_RTC_EnableWriteProtection(RTC);
 8002b60:	4803      	ldr	r0, [pc, #12]	; (8002b70 <MX_RTC_SetTime+0xc0>)
 8002b62:	f7ff fdee 	bl	8002742 <LL_RTC_EnableWriteProtection>
	return;
 8002b66:	bf00      	nop
}
 8002b68:	3708      	adds	r7, #8
 8002b6a:	46bd      	mov	sp, r7
 8002b6c:	bdb0      	pop	{r4, r5, r7, pc}
 8002b6e:	bf00      	nop
 8002b70:	40002800 	.word	0x40002800
 8002b74:	cccccccd 	.word	0xcccccccd

08002b78 <LL_AHB1_GRP1_EnableClock>:
{
 8002b78:	b480      	push	{r7}
 8002b7a:	b085      	sub	sp, #20
 8002b7c:	af00      	add	r7, sp, #0
 8002b7e:	6078      	str	r0, [r7, #4]
  SET_BIT(RCC->AHBENR, Periphs);
 8002b80:	4908      	ldr	r1, [pc, #32]	; (8002ba4 <LL_AHB1_GRP1_EnableClock+0x2c>)
 8002b82:	4b08      	ldr	r3, [pc, #32]	; (8002ba4 <LL_AHB1_GRP1_EnableClock+0x2c>)
 8002b84:	695a      	ldr	r2, [r3, #20]
 8002b86:	687b      	ldr	r3, [r7, #4]
 8002b88:	4313      	orrs	r3, r2
 8002b8a:	614b      	str	r3, [r1, #20]
  tmpreg = READ_BIT(RCC->AHBENR, Periphs);
 8002b8c:	4b05      	ldr	r3, [pc, #20]	; (8002ba4 <LL_AHB1_GRP1_EnableClock+0x2c>)
 8002b8e:	695a      	ldr	r2, [r3, #20]
 8002b90:	687b      	ldr	r3, [r7, #4]
 8002b92:	4013      	ands	r3, r2
 8002b94:	60fb      	str	r3, [r7, #12]
  (void)tmpreg;
 8002b96:	68fb      	ldr	r3, [r7, #12]
}
 8002b98:	bf00      	nop
 8002b9a:	3714      	adds	r7, #20
 8002b9c:	46bd      	mov	sp, r7
 8002b9e:	f85d 7b04 	ldr.w	r7, [sp], #4
 8002ba2:	4770      	bx	lr
 8002ba4:	40021000 	.word	0x40021000

08002ba8 <LL_APB2_GRP1_EnableClock>:
{
 8002ba8:	b480      	push	{r7}
 8002baa:	b085      	sub	sp, #20
 8002bac:	af00      	add	r7, sp, #0
 8002bae:	6078      	str	r0, [r7, #4]
  SET_BIT(RCC->APB2ENR, Periphs);
 8002bb0:	4908      	ldr	r1, [pc, #32]	; (8002bd4 <LL_APB2_GRP1_EnableClock+0x2c>)
 8002bb2:	4b08      	ldr	r3, [pc, #32]	; (8002bd4 <LL_APB2_GRP1_EnableClock+0x2c>)
 8002bb4:	699a      	ldr	r2, [r3, #24]
 8002bb6:	687b      	ldr	r3, [r7, #4]
 8002bb8:	4313      	orrs	r3, r2
 8002bba:	618b      	str	r3, [r1, #24]
  tmpreg = READ_BIT(RCC->APB2ENR, Periphs);
 8002bbc:	4b05      	ldr	r3, [pc, #20]	; (8002bd4 <LL_APB2_GRP1_EnableClock+0x2c>)
 8002bbe:	699a      	ldr	r2, [r3, #24]
 8002bc0:	687b      	ldr	r3, [r7, #4]
 8002bc2:	4013      	ands	r3, r2
 8002bc4:	60fb      	str	r3, [r7, #12]
  (void)tmpreg;
 8002bc6:	68fb      	ldr	r3, [r7, #12]
}
 8002bc8:	bf00      	nop
 8002bca:	3714      	adds	r7, #20
 8002bcc:	46bd      	mov	sp, r7
 8002bce:	f85d 7b04 	ldr.w	r7, [sp], #4
 8002bd2:	4770      	bx	lr
 8002bd4:	40021000 	.word	0x40021000

08002bd8 <LL_SPI_Enable>:
  * @rmtoll CR1          SPE           LL_SPI_Enable
  * @param  SPIx SPI Instance
  * @retval None
  */
__STATIC_INLINE void LL_SPI_Enable(SPI_TypeDef *SPIx)
{
 8002bd8:	b480      	push	{r7}
 8002bda:	b083      	sub	sp, #12
 8002bdc:	af00      	add	r7, sp, #0
 8002bde:	6078      	str	r0, [r7, #4]
  SET_BIT(SPIx->CR1, SPI_CR1_SPE);
 8002be0:	687b      	ldr	r3, [r7, #4]
 8002be2:	681b      	ldr	r3, [r3, #0]
 8002be4:	f043 0240 	orr.w	r2, r3, #64	; 0x40
 8002be8:	687b      	ldr	r3, [r7, #4]
 8002bea:	601a      	str	r2, [r3, #0]
}
 8002bec:	bf00      	nop
 8002bee:	370c      	adds	r7, #12
 8002bf0:	46bd      	mov	sp, r7
 8002bf2:	f85d 7b04 	ldr.w	r7, [sp], #4
 8002bf6:	4770      	bx	lr

08002bf8 <LL_SPI_SetStandard>:
  *         @arg @ref LL_SPI_PROTOCOL_MOTOROLA
  *         @arg @ref LL_SPI_PROTOCOL_TI
  * @retval None
  */
__STATIC_INLINE void LL_SPI_SetStandard(SPI_TypeDef *SPIx, uint32_t Standard)
{
 8002bf8:	b480      	push	{r7}
 8002bfa:	b083      	sub	sp, #12
 8002bfc:	af00      	add	r7, sp, #0
 8002bfe:	6078      	str	r0, [r7, #4]
 8002c00:	6039      	str	r1, [r7, #0]
  MODIFY_REG(SPIx->CR2, SPI_CR2_FRF, Standard);
 8002c02:	687b      	ldr	r3, [r7, #4]
 8002c04:	685b      	ldr	r3, [r3, #4]
 8002c06:	f023 0210 	bic.w	r2, r3, #16
 8002c0a:	683b      	ldr	r3, [r7, #0]
 8002c0c:	431a      	orrs	r2, r3
 8002c0e:	687b      	ldr	r3, [r7, #4]
 8002c10:	605a      	str	r2, [r3, #4]
}
 8002c12:	bf00      	nop
 8002c14:	370c      	adds	r7, #12
 8002c16:	46bd      	mov	sp, r7
 8002c18:	f85d 7b04 	ldr.w	r7, [sp], #4
 8002c1c:	4770      	bx	lr

08002c1e <LL_SPI_DisableNSSPulseMgt>:
  * @rmtoll CR2          NSSP          LL_SPI_DisableNSSPulseMgt
  * @param  SPIx SPI Instance
  * @retval None
  */
__STATIC_INLINE void LL_SPI_DisableNSSPulseMgt(SPI_TypeDef *SPIx)
{
 8002c1e:	b480      	push	{r7}
 8002c20:	b083      	sub	sp, #12
 8002c22:	af00      	add	r7, sp, #0
 8002c24:	6078      	str	r0, [r7, #4]
  CLEAR_BIT(SPIx->CR2, SPI_CR2_NSSP);
 8002c26:	687b      	ldr	r3, [r7, #4]
 8002c28:	685b      	ldr	r3, [r3, #4]
 8002c2a:	f023 0208 	bic.w	r2, r3, #8
 8002c2e:	687b      	ldr	r3, [r7, #4]
 8002c30:	605a      	str	r2, [r3, #4]
}
 8002c32:	bf00      	nop
 8002c34:	370c      	adds	r7, #12
 8002c36:	46bd      	mov	sp, r7
 8002c38:	f85d 7b04 	ldr.w	r7, [sp], #4
 8002c3c:	4770      	bx	lr

08002c3e <LL_SPI_IsActiveFlag_TXE>:
  * @rmtoll SR           TXE           LL_SPI_IsActiveFlag_TXE
  * @param  SPIx SPI Instance
  * @retval State of bit (1 or 0).
  */
__STATIC_INLINE uint32_t LL_SPI_IsActiveFlag_TXE(SPI_TypeDef *SPIx)
{
 8002c3e:	b480      	push	{r7}
 8002c40:	b083      	sub	sp, #12
 8002c42:	af00      	add	r7, sp, #0
 8002c44:	6078      	str	r0, [r7, #4]
  return ((READ_BIT(SPIx->SR, SPI_SR_TXE) == (SPI_SR_TXE)) ? 1UL : 0UL);
 8002c46:	687b      	ldr	r3, [r7, #4]
 8002c48:	689b      	ldr	r3, [r3, #8]
 8002c4a:	f003 0302 	and.w	r3, r3, #2
 8002c4e:	2b02      	cmp	r3, #2
 8002c50:	d101      	bne.n	8002c56 <LL_SPI_IsActiveFlag_TXE+0x18>
 8002c52:	2301      	movs	r3, #1
 8002c54:	e000      	b.n	8002c58 <LL_SPI_IsActiveFlag_TXE+0x1a>
 8002c56:	2300      	movs	r3, #0
}
 8002c58:	4618      	mov	r0, r3
 8002c5a:	370c      	adds	r7, #12
 8002c5c:	46bd      	mov	sp, r7
 8002c5e:	f85d 7b04 	ldr.w	r7, [sp], #4
 8002c62:	4770      	bx	lr

08002c64 <LL_SPI_IsActiveFlag_BSY>:
  * @rmtoll SR           BSY           LL_SPI_IsActiveFlag_BSY
  * @param  SPIx SPI Instance
  * @retval State of bit (1 or 0).
  */
__STATIC_INLINE uint32_t LL_SPI_IsActiveFlag_BSY(SPI_TypeDef *SPIx)
{
 8002c64:	b480      	push	{r7}
 8002c66:	b083      	sub	sp, #12
 8002c68:	af00      	add	r7, sp, #0
 8002c6a:	6078      	str	r0, [r7, #4]
  return ((READ_BIT(SPIx->SR, SPI_SR_BSY) == (SPI_SR_BSY)) ? 1UL : 0UL);
 8002c6c:	687b      	ldr	r3, [r7, #4]
 8002c6e:	689b      	ldr	r3, [r3, #8]
 8002c70:	f003 0380 	and.w	r3, r3, #128	; 0x80
 8002c74:	2b80      	cmp	r3, #128	; 0x80
 8002c76:	d101      	bne.n	8002c7c <LL_SPI_IsActiveFlag_BSY+0x18>
 8002c78:	2301      	movs	r3, #1
 8002c7a:	e000      	b.n	8002c7e <LL_SPI_IsActiveFlag_BSY+0x1a>
 8002c7c:	2300      	movs	r3, #0
}
 8002c7e:	4618      	mov	r0, r3
 8002c80:	370c      	adds	r7, #12
 8002c82:	46bd      	mov	sp, r7
 8002c84:	f85d 7b04 	ldr.w	r7, [sp], #4
 8002c88:	4770      	bx	lr

08002c8a <LL_SPI_TransmitData8>:
  * @param  SPIx SPI Instance
  * @param  TxData Value between Min_Data=0x00 and Max_Data=0xFF
  * @retval None
  */
__STATIC_INLINE void LL_SPI_TransmitData8(SPI_TypeDef *SPIx, uint8_t TxData)
{
 8002c8a:	b480      	push	{r7}
 8002c8c:	b085      	sub	sp, #20
 8002c8e:	af00      	add	r7, sp, #0
 8002c90:	6078      	str	r0, [r7, #4]
 8002c92:	460b      	mov	r3, r1
 8002c94:	70fb      	strb	r3, [r7, #3]
#if defined (__GNUC__)
  __IO uint8_t *spidr = ((__IO uint8_t *)&SPIx->DR);
 8002c96:	687b      	ldr	r3, [r7, #4]
 8002c98:	330c      	adds	r3, #12
 8002c9a:	60fb      	str	r3, [r7, #12]
  *spidr = TxData;
 8002c9c:	68fb      	ldr	r3, [r7, #12]
 8002c9e:	78fa      	ldrb	r2, [r7, #3]
 8002ca0:	701a      	strb	r2, [r3, #0]
#else
  *((__IO uint8_t *)&SPIx->DR) = TxData;
#endif /* __GNUC__ */
}
 8002ca2:	bf00      	nop
 8002ca4:	3714      	adds	r7, #20
 8002ca6:	46bd      	mov	sp, r7
 8002ca8:	f85d 7b04 	ldr.w	r7, [sp], #4
 8002cac:	4770      	bx	lr

08002cae <LL_GPIO_SetOutputPin>:
{
 8002cae:	b480      	push	{r7}
 8002cb0:	b083      	sub	sp, #12
 8002cb2:	af00      	add	r7, sp, #0
 8002cb4:	6078      	str	r0, [r7, #4]
 8002cb6:	6039      	str	r1, [r7, #0]
  WRITE_REG(GPIOx->BSRR, PinMask);
 8002cb8:	687b      	ldr	r3, [r7, #4]
 8002cba:	683a      	ldr	r2, [r7, #0]
 8002cbc:	619a      	str	r2, [r3, #24]
}
 8002cbe:	bf00      	nop
 8002cc0:	370c      	adds	r7, #12
 8002cc2:	46bd      	mov	sp, r7
 8002cc4:	f85d 7b04 	ldr.w	r7, [sp], #4
 8002cc8:	4770      	bx	lr

08002cca <LL_GPIO_ResetOutputPin>:
{
 8002cca:	b480      	push	{r7}
 8002ccc:	b083      	sub	sp, #12
 8002cce:	af00      	add	r7, sp, #0
 8002cd0:	6078      	str	r0, [r7, #4]
 8002cd2:	6039      	str	r1, [r7, #0]
  WRITE_REG(GPIOx->BRR, PinMask);
 8002cd4:	687b      	ldr	r3, [r7, #4]
 8002cd6:	683a      	ldr	r2, [r7, #0]
 8002cd8:	629a      	str	r2, [r3, #40]	; 0x28
}
 8002cda:	bf00      	nop
 8002cdc:	370c      	adds	r7, #12
 8002cde:	46bd      	mov	sp, r7
 8002ce0:	f85d 7b04 	ldr.w	r7, [sp], #4
 8002ce4:	4770      	bx	lr
	...

08002ce8 <MX_SPI1_Init>:

/* USER CODE END 0 */

/* SPI1 init function */
void MX_SPI1_Init(void)
{
 8002ce8:	b580      	push	{r7, lr}
 8002cea:	b090      	sub	sp, #64	; 0x40
 8002cec:	af00      	add	r7, sp, #0

  /* USER CODE BEGIN SPI1_Init 0 */

  /* USER CODE END SPI1_Init 0 */

  LL_SPI_InitTypeDef SPI_InitStruct = {0};
 8002cee:	f107 0318 	add.w	r3, r7, #24
 8002cf2:	2228      	movs	r2, #40	; 0x28
 8002cf4:	2100      	movs	r1, #0
 8002cf6:	4618      	mov	r0, r3
 8002cf8:	f001 fbaa 	bl	8004450 <memset>

  LL_GPIO_InitTypeDef GPIO_InitStruct = {0};
 8002cfc:	463b      	mov	r3, r7
 8002cfe:	2200      	movs	r2, #0
 8002d00:	601a      	str	r2, [r3, #0]
 8002d02:	605a      	str	r2, [r3, #4]
 8002d04:	609a      	str	r2, [r3, #8]
 8002d06:	60da      	str	r2, [r3, #12]
 8002d08:	611a      	str	r2, [r3, #16]
 8002d0a:	615a      	str	r2, [r3, #20]

  /* Peripheral clock enable */
  LL_APB2_GRP1_EnableClock(LL_APB2_GRP1_PERIPH_SPI1);
 8002d0c:	f44f 5080 	mov.w	r0, #4096	; 0x1000
 8002d10:	f7ff ff4a 	bl	8002ba8 <LL_APB2_GRP1_EnableClock>

  LL_AHB1_GRP1_EnableClock(LL_AHB1_GRP1_PERIPH_GPIOA);
 8002d14:	f44f 3000 	mov.w	r0, #131072	; 0x20000
 8002d18:	f7ff ff2e 	bl	8002b78 <LL_AHB1_GRP1_EnableClock>
  /**SPI1 GPIO Configuration
  PA5   ------> SPI1_SCK
  PA7   ------> SPI1_MOSI
  */
  GPIO_InitStruct.Pin = LL_GPIO_PIN_5;
 8002d1c:	2320      	movs	r3, #32
 8002d1e:	603b      	str	r3, [r7, #0]
  GPIO_InitStruct.Mode = LL_GPIO_MODE_ALTERNATE;
 8002d20:	2302      	movs	r3, #2
 8002d22:	607b      	str	r3, [r7, #4]
  GPIO_InitStruct.Speed = LL_GPIO_SPEED_FREQ_HIGH;
 8002d24:	2303      	movs	r3, #3
 8002d26:	60bb      	str	r3, [r7, #8]
  GPIO_InitStruct.OutputType = LL_GPIO_OUTPUT_PUSHPULL;
 8002d28:	2300      	movs	r3, #0
 8002d2a:	60fb      	str	r3, [r7, #12]
  GPIO_InitStruct.Pull = LL_GPIO_PULL_UP;
 8002d2c:	2301      	movs	r3, #1
 8002d2e:	613b      	str	r3, [r7, #16]
  GPIO_InitStruct.Alternate = LL_GPIO_AF_5;
 8002d30:	2305      	movs	r3, #5
 8002d32:	617b      	str	r3, [r7, #20]
  LL_GPIO_Init(GPIOA, &GPIO_InitStruct);
 8002d34:	463b      	mov	r3, r7
 8002d36:	4619      	mov	r1, r3
 8002d38:	f04f 4090 	mov.w	r0, #1207959552	; 0x48000000
 8002d3c:	f000 fabb 	bl	80032b6 <LL_GPIO_Init>

  GPIO_InitStruct.Pin = LL_GPIO_PIN_7;
 8002d40:	2380      	movs	r3, #128	; 0x80
 8002d42:	603b      	str	r3, [r7, #0]
  GPIO_InitStruct.Mode = LL_GPIO_MODE_ALTERNATE;
 8002d44:	2302      	movs	r3, #2
 8002d46:	607b      	str	r3, [r7, #4]
  GPIO_InitStruct.Speed = LL_GPIO_SPEED_FREQ_HIGH;
 8002d48:	2303      	movs	r3, #3
 8002d4a:	60bb      	str	r3, [r7, #8]
  GPIO_InitStruct.OutputType = LL_GPIO_OUTPUT_PUSHPULL;
 8002d4c:	2300      	movs	r3, #0
 8002d4e:	60fb      	str	r3, [r7, #12]
  GPIO_InitStruct.Pull = LL_GPIO_PULL_DOWN;
 8002d50:	2302      	movs	r3, #2
 8002d52:	613b      	str	r3, [r7, #16]
  GPIO_InitStruct.Alternate = LL_GPIO_AF_5;
 8002d54:	2305      	movs	r3, #5
 8002d56:	617b      	str	r3, [r7, #20]
  LL_GPIO_Init(GPIOA, &GPIO_InitStruct);
 8002d58:	463b      	mov	r3, r7
 8002d5a:	4619      	mov	r1, r3
 8002d5c:	f04f 4090 	mov.w	r0, #1207959552	; 0x48000000
 8002d60:	f000 faa9 	bl	80032b6 <LL_GPIO_Init>

  /* USER CODE BEGIN SPI1_Init 1 */

  /* USER CODE END SPI1_Init 1 */
  SPI_InitStruct.TransferDirection = LL_SPI_FULL_DUPLEX;
 8002d64:	2300      	movs	r3, #0
 8002d66:	61bb      	str	r3, [r7, #24]
  SPI_InitStruct.Mode = LL_SPI_MODE_MASTER;
 8002d68:	f44f 7382 	mov.w	r3, #260	; 0x104
 8002d6c:	61fb      	str	r3, [r7, #28]
  SPI_InitStruct.DataWidth = LL_SPI_DATAWIDTH_8BIT;
 8002d6e:	f44f 63e0 	mov.w	r3, #1792	; 0x700
 8002d72:	623b      	str	r3, [r7, #32]
  SPI_InitStruct.ClockPolarity = LL_SPI_POLARITY_HIGH;
 8002d74:	2302      	movs	r3, #2
 8002d76:	627b      	str	r3, [r7, #36]	; 0x24
  SPI_InitStruct.ClockPhase = LL_SPI_PHASE_2EDGE;
 8002d78:	2301      	movs	r3, #1
 8002d7a:	62bb      	str	r3, [r7, #40]	; 0x28
  SPI_InitStruct.NSS = LL_SPI_NSS_SOFT;
 8002d7c:	f44f 7300 	mov.w	r3, #512	; 0x200
 8002d80:	62fb      	str	r3, [r7, #44]	; 0x2c
  SPI_InitStruct.BaudRate = LL_SPI_BAUDRATEPRESCALER_DIV256;
 8002d82:	2338      	movs	r3, #56	; 0x38
 8002d84:	633b      	str	r3, [r7, #48]	; 0x30
  SPI_InitStruct.BitOrder = LL_SPI_MSB_FIRST;
 8002d86:	2300      	movs	r3, #0
 8002d88:	637b      	str	r3, [r7, #52]	; 0x34
  SPI_InitStruct.CRCCalculation = LL_SPI_CRCCALCULATION_DISABLE;
 8002d8a:	2300      	movs	r3, #0
 8002d8c:	63bb      	str	r3, [r7, #56]	; 0x38
  SPI_InitStruct.CRCPoly = 7;
 8002d8e:	2307      	movs	r3, #7
 8002d90:	63fb      	str	r3, [r7, #60]	; 0x3c
  LL_SPI_Init(SPI1, &SPI_InitStruct);
 8002d92:	f107 0318 	add.w	r3, r7, #24
 8002d96:	4619      	mov	r1, r3
 8002d98:	4808      	ldr	r0, [pc, #32]	; (8002dbc <MX_SPI1_Init+0xd4>)
 8002d9a:	f000 ff43 	bl	8003c24 <LL_SPI_Init>
  LL_SPI_SetStandard(SPI1, LL_SPI_PROTOCOL_MOTOROLA);
 8002d9e:	2100      	movs	r1, #0
 8002da0:	4806      	ldr	r0, [pc, #24]	; (8002dbc <MX_SPI1_Init+0xd4>)
 8002da2:	f7ff ff29 	bl	8002bf8 <LL_SPI_SetStandard>
  LL_SPI_DisableNSSPulseMgt(SPI1);
 8002da6:	4805      	ldr	r0, [pc, #20]	; (8002dbc <MX_SPI1_Init+0xd4>)
 8002da8:	f7ff ff39 	bl	8002c1e <LL_SPI_DisableNSSPulseMgt>
  /* USER CODE BEGIN SPI1_Init 2 */
 LL_SPI_Enable(SPI1);
 8002dac:	4803      	ldr	r0, [pc, #12]	; (8002dbc <MX_SPI1_Init+0xd4>)
 8002dae:	f7ff ff13 	bl	8002bd8 <LL_SPI_Enable>
  /* USER CODE END SPI1_Init 2 */

}
 8002db2:	bf00      	nop
 8002db4:	3740      	adds	r7, #64	; 0x40
 8002db6:	46bd      	mov	sp, r7
 8002db8:	bd80      	pop	{r7, pc}
 8002dba:	bf00      	nop
 8002dbc:	40013000 	.word	0x40013000

08002dc0 <MX_SPI1_Send>:

/* USER CODE BEGIN 1 */
void MX_SPI1_Send(uint8_t tx)
{
 8002dc0:	b580      	push	{r7, lr}
 8002dc2:	b082      	sub	sp, #8
 8002dc4:	af00      	add	r7, sp, #0
 8002dc6:	4603      	mov	r3, r0
 8002dc8:	71fb      	strb	r3, [r7, #7]
	/*This functions sends a command/data of 8 bits, if A0=0, we send a command
	, if A0=1, we send a data*/

	/*Check BSY flag, SPI is not busy */
	while (LL_SPI_IsActiveFlag_BSY(SPI1));
 8002dca:	bf00      	nop
 8002dcc:	480a      	ldr	r0, [pc, #40]	; (8002df8 <MX_SPI1_Send+0x38>)
 8002dce:	f7ff ff49 	bl	8002c64 <LL_SPI_IsActiveFlag_BSY>
 8002dd2:	4603      	mov	r3, r0
 8002dd4:	2b00      	cmp	r3, #0
 8002dd6:	d1f9      	bne.n	8002dcc <MX_SPI1_Send+0xc>

	/*Send data of 8 bits*/
	LL_SPI_TransmitData8(SPI1, tx);
 8002dd8:	79fb      	ldrb	r3, [r7, #7]
 8002dda:	4619      	mov	r1, r3
 8002ddc:	4806      	ldr	r0, [pc, #24]	; (8002df8 <MX_SPI1_Send+0x38>)
 8002dde:	f7ff ff54 	bl	8002c8a <LL_SPI_TransmitData8>

	/*Wait until the Tx Buffer is empty*/
	while (!LL_SPI_IsActiveFlag_TXE(SPI1));
 8002de2:	bf00      	nop
 8002de4:	4804      	ldr	r0, [pc, #16]	; (8002df8 <MX_SPI1_Send+0x38>)
 8002de6:	f7ff ff2a 	bl	8002c3e <LL_SPI_IsActiveFlag_TXE>
 8002dea:	4603      	mov	r3, r0
 8002dec:	2b00      	cmp	r3, #0
 8002dee:	d0f9      	beq.n	8002de4 <MX_SPI1_Send+0x24>

	return;
 8002df0:	bf00      	nop

}
 8002df2:	3708      	adds	r7, #8
 8002df4:	46bd      	mov	sp, r7
 8002df6:	bd80      	pop	{r7, pc}
 8002df8:	40013000 	.word	0x40013000

08002dfc <MX_SPI1_CS_Enable>:
void MX_SPI1_CS_Enable(void)
{
 8002dfc:	b580      	push	{r7, lr}
 8002dfe:	af00      	add	r7, sp, #0
	/*Pin PB6 is configured as CHIP SELECT signal of SPI1,
	CPOL=1, therefore, it is active in LOW
	PB6   ------> SPI1_CS_N*/

	LL_GPIO_ResetOutputPin(LCD_CS_N_GPIO_Port,LCD_CS_N_Pin );
 8002e00:	2140      	movs	r1, #64	; 0x40
 8002e02:	4802      	ldr	r0, [pc, #8]	; (8002e0c <MX_SPI1_CS_Enable+0x10>)
 8002e04:	f7ff ff61 	bl	8002cca <LL_GPIO_ResetOutputPin>
}
 8002e08:	bf00      	nop
 8002e0a:	bd80      	pop	{r7, pc}
 8002e0c:	48000400 	.word	0x48000400

08002e10 <MX_SPI1_CS_Disable>:
void MX_SPI1_CS_Disable(void)
{
 8002e10:	b580      	push	{r7, lr}
 8002e12:	af00      	add	r7, sp, #0
	/*Pin PB6 is configured as CHIP SELECT signal of SPI1,
	CPOL=1, therefore, it is disable in HIGH
	PB6   ------> SPI1_CS_N*/

	LL_GPIO_SetOutputPin(LCD_CS_N_GPIO_Port,LCD_CS_N_Pin);
 8002e14:	2140      	movs	r1, #64	; 0x40
 8002e16:	4802      	ldr	r0, [pc, #8]	; (8002e20 <MX_SPI1_CS_Disable+0x10>)
 8002e18:	f7ff ff49 	bl	8002cae <LL_GPIO_SetOutputPin>
}
 8002e1c:	bf00      	nop
 8002e1e:	bd80      	pop	{r7, pc}
 8002e20:	48000400 	.word	0x48000400

08002e24 <NMI_Handler>:
/******************************************************************************/
/**
  * @brief This function handles Non maskable interrupt.
  */
void NMI_Handler(void)
{
 8002e24:	b480      	push	{r7}
 8002e26:	af00      	add	r7, sp, #0
  /* USER CODE BEGIN NonMaskableInt_IRQn 0 */

  /* USER CODE END NonMaskableInt_IRQn 0 */
  /* USER CODE BEGIN NonMaskableInt_IRQn 1 */
  while (1)
 8002e28:	e7fe      	b.n	8002e28 <NMI_Handler+0x4>

08002e2a <HardFault_Handler>:

/**
  * @brief This function handles Hard fault interrupt.
  */
void HardFault_Handler(void)
{
 8002e2a:	b480      	push	{r7}
 8002e2c:	af00      	add	r7, sp, #0
  /* USER CODE BEGIN HardFault_IRQn 0 */

  /* USER CODE END HardFault_IRQn 0 */
  while (1)
 8002e2e:	e7fe      	b.n	8002e2e <HardFault_Handler+0x4>

08002e30 <MemManage_Handler>:

/**
  * @brief This function handles Memory management fault.
  */
void MemManage_Handler(void)
{
 8002e30:	b480      	push	{r7}
 8002e32:	af00      	add	r7, sp, #0
  /* USER CODE BEGIN MemoryManagement_IRQn 0 */

  /* USER CODE END MemoryManagement_IRQn 0 */
  while (1)
 8002e34:	e7fe      	b.n	8002e34 <MemManage_Handler+0x4>

08002e36 <BusFault_Handler>:

/**
  * @brief This function handles Pre-fetch fault, memory access fault.
  */
void BusFault_Handler(void)
{
 8002e36:	b480      	push	{r7}
 8002e38:	af00      	add	r7, sp, #0
  /* USER CODE BEGIN BusFault_IRQn 0 */

  /* USER CODE END BusFault_IRQn 0 */
  while (1)
 8002e3a:	e7fe      	b.n	8002e3a <BusFault_Handler+0x4>

08002e3c <UsageFault_Handler>:

/**
  * @brief This function handles Undefined instruction or illegal state.
  */
void UsageFault_Handler(void)
{
 8002e3c:	b480      	push	{r7}
 8002e3e:	af00      	add	r7, sp, #0
  /* USER CODE BEGIN UsageFault_IRQn 0 */

  /* USER CODE END UsageFault_IRQn 0 */
  while (1)
 8002e40:	e7fe      	b.n	8002e40 <UsageFault_Handler+0x4>

08002e42 <SVC_Handler>:

/**
  * @brief This function handles System service call via SWI instruction.
  */
void SVC_Handler(void)
{
 8002e42:	b480      	push	{r7}
 8002e44:	af00      	add	r7, sp, #0

  /* USER CODE END SVCall_IRQn 0 */
  /* USER CODE BEGIN SVCall_IRQn 1 */

  /* USER CODE END SVCall_IRQn 1 */
}
 8002e46:	bf00      	nop
 8002e48:	46bd      	mov	sp, r7
 8002e4a:	f85d 7b04 	ldr.w	r7, [sp], #4
 8002e4e:	4770      	bx	lr

08002e50 <DebugMon_Handler>:

/**
  * @brief This function handles Debug monitor.
  */
void DebugMon_Handler(void)
{
 8002e50:	b480      	push	{r7}
 8002e52:	af00      	add	r7, sp, #0

  /* USER CODE END DebugMonitor_IRQn 0 */
  /* USER CODE BEGIN DebugMonitor_IRQn 1 */

  /* USER CODE END DebugMonitor_IRQn 1 */
}
 8002e54:	bf00      	nop
 8002e56:	46bd      	mov	sp, r7
 8002e58:	f85d 7b04 	ldr.w	r7, [sp], #4
 8002e5c:	4770      	bx	lr

08002e5e <PendSV_Handler>:

/**
  * @brief This function handles Pendable request for system service.
  */
void PendSV_Handler(void)
{
 8002e5e:	b480      	push	{r7}
 8002e60:	af00      	add	r7, sp, #0

  /* USER CODE END PendSV_IRQn 0 */
  /* USER CODE BEGIN PendSV_IRQn 1 */

  /* USER CODE END PendSV_IRQn 1 */
}
 8002e62:	bf00      	nop
 8002e64:	46bd      	mov	sp, r7
 8002e66:	f85d 7b04 	ldr.w	r7, [sp], #4
 8002e6a:	4770      	bx	lr

08002e6c <SysTick_Handler>:

/**
  * @brief This function handles System tick timer.
  */
void SysTick_Handler(void)
{
 8002e6c:	b480      	push	{r7}
 8002e6e:	af00      	add	r7, sp, #0
  /* USER CODE END SysTick_IRQn 0 */

  /* USER CODE BEGIN SysTick_IRQn 1 */

  /* USER CODE END SysTick_IRQn 1 */
}
 8002e70:	bf00      	nop
 8002e72:	46bd      	mov	sp, r7
 8002e74:	f85d 7b04 	ldr.w	r7, [sp], #4
 8002e78:	4770      	bx	lr
	...

08002e7c <SystemInit>:
  * @brief  Setup the microcontroller system
  * @param  None
  * @retval None
  */
void SystemInit(void)
{
 8002e7c:	b480      	push	{r7}
 8002e7e:	af00      	add	r7, sp, #0
/* FPU settings --------------------------------------------------------------*/
#if (__FPU_PRESENT == 1) && (__FPU_USED == 1)
  SCB->CPACR |= ((3UL << 10*2)|(3UL << 11*2));  /* set CP10 and CP11 Full Access */
 8002e80:	4a06      	ldr	r2, [pc, #24]	; (8002e9c <SystemInit+0x20>)
 8002e82:	4b06      	ldr	r3, [pc, #24]	; (8002e9c <SystemInit+0x20>)
 8002e84:	f8d3 3088 	ldr.w	r3, [r3, #136]	; 0x88
 8002e88:	f443 0370 	orr.w	r3, r3, #15728640	; 0xf00000
 8002e8c:	f8c2 3088 	str.w	r3, [r2, #136]	; 0x88

  /* Configure the Vector Table location -------------------------------------*/
#if defined(USER_VECT_TAB_ADDRESS)
  SCB->VTOR = VECT_TAB_BASE_ADDRESS | VECT_TAB_OFFSET; /* Vector Table Relocation in Internal SRAM */
#endif /* USER_VECT_TAB_ADDRESS */
}
 8002e90:	bf00      	nop
 8002e92:	46bd      	mov	sp, r7
 8002e94:	f85d 7b04 	ldr.w	r7, [sp], #4
 8002e98:	4770      	bx	lr
 8002e9a:	bf00      	nop
 8002e9c:	e000ed00 	.word	0xe000ed00

08002ea0 <LL_TIM_EnableCounter>:
  * @rmtoll CR1          CEN           LL_TIM_EnableCounter
  * @param  TIMx Timer instance
  * @retval None
  */
__STATIC_INLINE void LL_TIM_EnableCounter(TIM_TypeDef *TIMx)
{
 8002ea0:	b480      	push	{r7}
 8002ea2:	b083      	sub	sp, #12
 8002ea4:	af00      	add	r7, sp, #0
 8002ea6:	6078      	str	r0, [r7, #4]
  SET_BIT(TIMx->CR1, TIM_CR1_CEN);
 8002ea8:	687b      	ldr	r3, [r7, #4]
 8002eaa:	681b      	ldr	r3, [r3, #0]
 8002eac:	f043 0201 	orr.w	r2, r3, #1
 8002eb0:	687b      	ldr	r3, [r7, #4]
 8002eb2:	601a      	str	r2, [r3, #0]
}
 8002eb4:	bf00      	nop
 8002eb6:	370c      	adds	r7, #12
 8002eb8:	46bd      	mov	sp, r7
 8002eba:	f85d 7b04 	ldr.w	r7, [sp], #4
 8002ebe:	4770      	bx	lr

08002ec0 <LL_TIM_DisableCounter>:
  * @rmtoll CR1          CEN           LL_TIM_DisableCounter
  * @param  TIMx Timer instance
  * @retval None
  */
__STATIC_INLINE void LL_TIM_DisableCounter(TIM_TypeDef *TIMx)
{
 8002ec0:	b480      	push	{r7}
 8002ec2:	b083      	sub	sp, #12
 8002ec4:	af00      	add	r7, sp, #0
 8002ec6:	6078      	str	r0, [r7, #4]
  CLEAR_BIT(TIMx->CR1, TIM_CR1_CEN);
 8002ec8:	687b      	ldr	r3, [r7, #4]
 8002eca:	681b      	ldr	r3, [r3, #0]
 8002ecc:	f023 0201 	bic.w	r2, r3, #1
 8002ed0:	687b      	ldr	r3, [r7, #4]
 8002ed2:	601a      	str	r2, [r3, #0]
}
 8002ed4:	bf00      	nop
 8002ed6:	370c      	adds	r7, #12
 8002ed8:	46bd      	mov	sp, r7
 8002eda:	f85d 7b04 	ldr.w	r7, [sp], #4
 8002ede:	4770      	bx	lr

08002ee0 <MX_PWM_TurnOn>:

/* USER CODE BEGIN 1 */

//ThisFunction enable the counter used to create the PWM signal
void MX_PWM_TurnOn(void)
{
 8002ee0:	b580      	push	{r7, lr}
 8002ee2:	af00      	add	r7, sp, #0
	LL_TIM_EnableCounter(TIM2);
 8002ee4:	f04f 4080 	mov.w	r0, #1073741824	; 0x40000000
 8002ee8:	f7ff ffda 	bl	8002ea0 <LL_TIM_EnableCounter>
	return;
 8002eec:	bf00      	nop
}
 8002eee:	bd80      	pop	{r7, pc}

08002ef0 <MX_PWM_TurnOff>:

//ThisFunction disable the counter used to create the PWM signal
void MX_PWM_TurnOff(void)
{
 8002ef0:	b580      	push	{r7, lr}
 8002ef2:	af00      	add	r7, sp, #0
	LL_TIM_DisableCounter(TIM2);
 8002ef4:	f04f 4080 	mov.w	r0, #1073741824	; 0x40000000
 8002ef8:	f7ff ffe2 	bl	8002ec0 <LL_TIM_DisableCounter>
	return;
 8002efc:	bf00      	nop
}
 8002efe:	bd80      	pop	{r7, pc}

08002f00 <LL_ADC_REG_SetSequencerLength>:
{
 8002f00:	b480      	push	{r7}
 8002f02:	b083      	sub	sp, #12
 8002f04:	af00      	add	r7, sp, #0
 8002f06:	6078      	str	r0, [r7, #4]
 8002f08:	6039      	str	r1, [r7, #0]
  MODIFY_REG(ADCx->SQR1, ADC_SQR1_L, SequencerNbRanks);
 8002f0a:	687b      	ldr	r3, [r7, #4]
 8002f0c:	6b1b      	ldr	r3, [r3, #48]	; 0x30
 8002f0e:	f023 020f 	bic.w	r2, r3, #15
 8002f12:	683b      	ldr	r3, [r7, #0]
 8002f14:	431a      	orrs	r2, r3
 8002f16:	687b      	ldr	r3, [r7, #4]
 8002f18:	631a      	str	r2, [r3, #48]	; 0x30
}
 8002f1a:	bf00      	nop
 8002f1c:	370c      	adds	r7, #12
 8002f1e:	46bd      	mov	sp, r7
 8002f20:	f85d 7b04 	ldr.w	r7, [sp], #4
 8002f24:	4770      	bx	lr

08002f26 <LL_ADC_IsEnabled>:
{
 8002f26:	b480      	push	{r7}
 8002f28:	b083      	sub	sp, #12
 8002f2a:	af00      	add	r7, sp, #0
 8002f2c:	6078      	str	r0, [r7, #4]
  return (READ_BIT(ADCx->CR, ADC_CR_ADEN) == (ADC_CR_ADEN));
 8002f2e:	687b      	ldr	r3, [r7, #4]
 8002f30:	689b      	ldr	r3, [r3, #8]
 8002f32:	f003 0301 	and.w	r3, r3, #1
 8002f36:	2b01      	cmp	r3, #1
 8002f38:	bf0c      	ite	eq
 8002f3a:	2301      	moveq	r3, #1
 8002f3c:	2300      	movne	r3, #0
 8002f3e:	b2db      	uxtb	r3, r3
}
 8002f40:	4618      	mov	r0, r3
 8002f42:	370c      	adds	r7, #12
 8002f44:	46bd      	mov	sp, r7
 8002f46:	f85d 7b04 	ldr.w	r7, [sp], #4
 8002f4a:	4770      	bx	lr

08002f4c <LL_ADC_CommonInit>:
  * @retval An ErrorStatus enumeration value:
  *          - SUCCESS: ADC common registers are initialized
  *          - ERROR: ADC common registers are not initialized
  */
ErrorStatus LL_ADC_CommonInit(ADC_Common_TypeDef *ADCxy_COMMON, LL_ADC_CommonInitTypeDef *ADC_CommonInitStruct)
{
 8002f4c:	b590      	push	{r4, r7, lr}
 8002f4e:	b085      	sub	sp, #20
 8002f50:	af00      	add	r7, sp, #0
 8002f52:	6078      	str	r0, [r7, #4]
 8002f54:	6039      	str	r1, [r7, #0]
  ErrorStatus status = SUCCESS;
 8002f56:	2300      	movs	r3, #0
 8002f58:	73fb      	strb	r3, [r7, #15]
  /* Note: Hardware constraint (refer to description of functions             */
  /*       "LL_ADC_SetCommonXXX()" and "LL_ADC_SetMultiXXX()"):               */
  /*       On this STM32 serie, setting of these features is conditioned to   */
  /*       ADC state:                                                         */
  /*       All ADC instances of the ADC common group must be disabled.        */
  if(__LL_ADC_IS_ENABLED_ALL_COMMON_INSTANCE(ADCxy_COMMON) == 0U)
 8002f5a:	f04f 40a0 	mov.w	r0, #1342177280	; 0x50000000
 8002f5e:	f7ff ffe2 	bl	8002f26 <LL_ADC_IsEnabled>
 8002f62:	4604      	mov	r4, r0
 8002f64:	4817      	ldr	r0, [pc, #92]	; (8002fc4 <LL_ADC_CommonInit+0x78>)
 8002f66:	f7ff ffde 	bl	8002f26 <LL_ADC_IsEnabled>
 8002f6a:	4603      	mov	r3, r0
 8002f6c:	4323      	orrs	r3, r4
 8002f6e:	2b00      	cmp	r3, #0
 8002f70:	d120      	bne.n	8002fb4 <LL_ADC_CommonInit+0x68>
    /*    selected device)                                                    */
    /*    - Set ADC multimode configuration                                   */
    /*    - Set ADC multimode DMA transfer                                    */
    /*    - Set ADC multimode: delay between 2 sampling phases                */
#if defined(ADC_MULTIMODE_SUPPORT)
    if(ADC_CommonInitStruct->Multimode != LL_ADC_MULTI_INDEPENDENT)
 8002f72:	683b      	ldr	r3, [r7, #0]
 8002f74:	685b      	ldr	r3, [r3, #4]
 8002f76:	2b00      	cmp	r3, #0
 8002f78:	d012      	beq.n	8002fa0 <LL_ADC_CommonInit+0x54>
    {
      MODIFY_REG(ADCxy_COMMON->CCR,
 8002f7a:	687b      	ldr	r3, [r7, #4]
 8002f7c:	689a      	ldr	r2, [r3, #8]
 8002f7e:	4b12      	ldr	r3, [pc, #72]	; (8002fc8 <LL_ADC_CommonInit+0x7c>)
 8002f80:	4013      	ands	r3, r2
 8002f82:	683a      	ldr	r2, [r7, #0]
 8002f84:	6811      	ldr	r1, [r2, #0]
 8002f86:	683a      	ldr	r2, [r7, #0]
 8002f88:	6852      	ldr	r2, [r2, #4]
 8002f8a:	4311      	orrs	r1, r2
 8002f8c:	683a      	ldr	r2, [r7, #0]
 8002f8e:	6892      	ldr	r2, [r2, #8]
 8002f90:	4311      	orrs	r1, r2
 8002f92:	683a      	ldr	r2, [r7, #0]
 8002f94:	68d2      	ldr	r2, [r2, #12]
 8002f96:	430a      	orrs	r2, r1
 8002f98:	431a      	orrs	r2, r3
 8002f9a:	687b      	ldr	r3, [r7, #4]
 8002f9c:	609a      	str	r2, [r3, #8]
 8002f9e:	e00b      	b.n	8002fb8 <LL_ADC_CommonInit+0x6c>
                 | ADC_CommonInitStruct->MultiTwoSamplingDelay
                );
    }
    else
    {
      MODIFY_REG(ADCxy_COMMON->CCR,
 8002fa0:	687b      	ldr	r3, [r7, #4]
 8002fa2:	689a      	ldr	r2, [r3, #8]
 8002fa4:	4b08      	ldr	r3, [pc, #32]	; (8002fc8 <LL_ADC_CommonInit+0x7c>)
 8002fa6:	4013      	ands	r3, r2
 8002fa8:	683a      	ldr	r2, [r7, #0]
 8002faa:	6812      	ldr	r2, [r2, #0]
 8002fac:	431a      	orrs	r2, r3
 8002fae:	687b      	ldr	r3, [r7, #4]
 8002fb0:	609a      	str	r2, [r3, #8]
 8002fb2:	e001      	b.n	8002fb8 <LL_ADC_CommonInit+0x6c>
  }
  else
  {
    /* Initialization error: One or several ADC instances belonging to        */
    /* the same ADC common instance are not disabled.                         */
    status = ERROR;
 8002fb4:	2301      	movs	r3, #1
 8002fb6:	73fb      	strb	r3, [r7, #15]
  }
  
  return status;
 8002fb8:	7bfb      	ldrb	r3, [r7, #15]
}
 8002fba:	4618      	mov	r0, r3
 8002fbc:	3714      	adds	r7, #20
 8002fbe:	46bd      	mov	sp, r7
 8002fc0:	bd90      	pop	{r4, r7, pc}
 8002fc2:	bf00      	nop
 8002fc4:	50000100 	.word	0x50000100
 8002fc8:	fffc30e0 	.word	0xfffc30e0

08002fcc <LL_ADC_Init>:
  * @retval An ErrorStatus enumeration value:
  *          - SUCCESS: ADC registers are initialized
  *          - ERROR: ADC registers are not initialized
  */
ErrorStatus LL_ADC_Init(ADC_TypeDef *ADCx, LL_ADC_InitTypeDef *ADC_InitStruct)
{
 8002fcc:	b580      	push	{r7, lr}
 8002fce:	b084      	sub	sp, #16
 8002fd0:	af00      	add	r7, sp, #0
 8002fd2:	6078      	str	r0, [r7, #4]
 8002fd4:	6039      	str	r1, [r7, #0]
  ErrorStatus status = SUCCESS;
 8002fd6:	2300      	movs	r3, #0
 8002fd8:	73fb      	strb	r3, [r7, #15]
  assert_param(IS_LL_ADC_DATA_ALIGN(ADC_InitStruct->DataAlignment));
  assert_param(IS_LL_ADC_LOW_POWER(ADC_InitStruct->LowPowerMode));
  
  /* Note: Hardware constraint (refer to description of this function):       */
  /*       ADC instance must be disabled.                                     */
  if(LL_ADC_IsEnabled(ADCx) == 0U)
 8002fda:	6878      	ldr	r0, [r7, #4]
 8002fdc:	f7ff ffa3 	bl	8002f26 <LL_ADC_IsEnabled>
 8002fe0:	4603      	mov	r3, r0
 8002fe2:	2b00      	cmp	r3, #0
 8002fe4:	d111      	bne.n	800300a <LL_ADC_Init+0x3e>
    /* Configuration of ADC hierarchical scope:                               */
    /*  - ADC instance                                                        */
    /*    - Set ADC data resolution                                           */
    /*    - Set ADC conversion data alignment                                 */
    /*    - Set ADC low power mode                                            */
    MODIFY_REG(ADCx->CFGR,
 8002fe6:	687b      	ldr	r3, [r7, #4]
 8002fe8:	68db      	ldr	r3, [r3, #12]
 8002fea:	f423 4380 	bic.w	r3, r3, #16384	; 0x4000
 8002fee:	f023 0338 	bic.w	r3, r3, #56	; 0x38
 8002ff2:	683a      	ldr	r2, [r7, #0]
 8002ff4:	6811      	ldr	r1, [r2, #0]
 8002ff6:	683a      	ldr	r2, [r7, #0]
 8002ff8:	6852      	ldr	r2, [r2, #4]
 8002ffa:	4311      	orrs	r1, r2
 8002ffc:	683a      	ldr	r2, [r7, #0]
 8002ffe:	6892      	ldr	r2, [r2, #8]
 8003000:	430a      	orrs	r2, r1
 8003002:	431a      	orrs	r2, r3
 8003004:	687b      	ldr	r3, [r7, #4]
 8003006:	60da      	str	r2, [r3, #12]
 8003008:	e001      	b.n	800300e <LL_ADC_Init+0x42>
    
  }
  else
  {
    /* Initialization error: ADC instance is not disabled. */
    status = ERROR;
 800300a:	2301      	movs	r3, #1
 800300c:	73fb      	strb	r3, [r7, #15]
  }
  return status;
 800300e:	7bfb      	ldrb	r3, [r7, #15]
}
 8003010:	4618      	mov	r0, r3
 8003012:	3710      	adds	r7, #16
 8003014:	46bd      	mov	sp, r7
 8003016:	bd80      	pop	{r7, pc}

08003018 <LL_ADC_REG_Init>:
  * @retval An ErrorStatus enumeration value:
  *          - SUCCESS: ADC registers are initialized
  *          - ERROR: ADC registers are not initialized
  */
ErrorStatus LL_ADC_REG_Init(ADC_TypeDef *ADCx, LL_ADC_REG_InitTypeDef *ADC_REG_InitStruct)
{
 8003018:	b580      	push	{r7, lr}
 800301a:	b084      	sub	sp, #16
 800301c:	af00      	add	r7, sp, #0
 800301e:	6078      	str	r0, [r7, #4]
 8003020:	6039      	str	r1, [r7, #0]
  ErrorStatus status = SUCCESS;
 8003022:	2300      	movs	r3, #0
 8003024:	73fb      	strb	r3, [r7, #15]
  assert_param(IS_LL_ADC_REG_DMA_TRANSFER(ADC_REG_InitStruct->DMATransfer));
  assert_param(IS_LL_ADC_REG_OVR_DATA_BEHAVIOR(ADC_REG_InitStruct->Overrun));
  
  /* Note: Hardware constraint (refer to description of this function):       */
  /*       ADC instance must be disabled.                                     */
  if(LL_ADC_IsEnabled(ADCx) == 0U)
 8003026:	6878      	ldr	r0, [r7, #4]
 8003028:	f7ff ff7d 	bl	8002f26 <LL_ADC_IsEnabled>
 800302c:	4603      	mov	r3, r0
 800302e:	2b00      	cmp	r3, #0
 8003030:	d132      	bne.n	8003098 <LL_ADC_REG_Init+0x80>
    /*    - Set ADC group regular conversion data transfer: no transfer or    */
    /*      transfer by DMA, and DMA requests mode                            */
    /*    - Set ADC group regular overrun behavior                            */
    /* Note: On this STM32 serie, ADC trigger edge is set to value 0x0 by     */
    /*       setting of trigger source to SW start.                           */
    if(ADC_REG_InitStruct->SequencerLength != LL_ADC_REG_SEQ_SCAN_DISABLE)
 8003032:	683b      	ldr	r3, [r7, #0]
 8003034:	685b      	ldr	r3, [r3, #4]
 8003036:	2b00      	cmp	r3, #0
 8003038:	d015      	beq.n	8003066 <LL_ADC_REG_Init+0x4e>
    {
      MODIFY_REG(ADCx->CFGR,
 800303a:	687b      	ldr	r3, [r7, #4]
 800303c:	68da      	ldr	r2, [r3, #12]
 800303e:	4b1a      	ldr	r3, [pc, #104]	; (80030a8 <LL_ADC_REG_Init+0x90>)
 8003040:	4013      	ands	r3, r2
 8003042:	683a      	ldr	r2, [r7, #0]
 8003044:	6811      	ldr	r1, [r2, #0]
 8003046:	683a      	ldr	r2, [r7, #0]
 8003048:	6892      	ldr	r2, [r2, #8]
 800304a:	4311      	orrs	r1, r2
 800304c:	683a      	ldr	r2, [r7, #0]
 800304e:	68d2      	ldr	r2, [r2, #12]
 8003050:	4311      	orrs	r1, r2
 8003052:	683a      	ldr	r2, [r7, #0]
 8003054:	6912      	ldr	r2, [r2, #16]
 8003056:	4311      	orrs	r1, r2
 8003058:	683a      	ldr	r2, [r7, #0]
 800305a:	6952      	ldr	r2, [r2, #20]
 800305c:	430a      	orrs	r2, r1
 800305e:	431a      	orrs	r2, r3
 8003060:	687b      	ldr	r3, [r7, #4]
 8003062:	60da      	str	r2, [r3, #12]
 8003064:	e011      	b.n	800308a <LL_ADC_REG_Init+0x72>
                 | ADC_REG_InitStruct->Overrun
                );
    }
    else
    {
      MODIFY_REG(ADCx->CFGR,
 8003066:	687b      	ldr	r3, [r7, #4]
 8003068:	68da      	ldr	r2, [r3, #12]
 800306a:	4b0f      	ldr	r3, [pc, #60]	; (80030a8 <LL_ADC_REG_Init+0x90>)
 800306c:	4013      	ands	r3, r2
 800306e:	683a      	ldr	r2, [r7, #0]
 8003070:	6811      	ldr	r1, [r2, #0]
 8003072:	683a      	ldr	r2, [r7, #0]
 8003074:	68d2      	ldr	r2, [r2, #12]
 8003076:	4311      	orrs	r1, r2
 8003078:	683a      	ldr	r2, [r7, #0]
 800307a:	6912      	ldr	r2, [r2, #16]
 800307c:	4311      	orrs	r1, r2
 800307e:	683a      	ldr	r2, [r7, #0]
 8003080:	6952      	ldr	r2, [r2, #20]
 8003082:	430a      	orrs	r2, r1
 8003084:	431a      	orrs	r2, r3
 8003086:	687b      	ldr	r3, [r7, #4]
 8003088:	60da      	str	r2, [r3, #12]
                 | ADC_REG_InitStruct->Overrun
                );
    }
    
    /* Set ADC group regular sequencer length and scan direction */
    LL_ADC_REG_SetSequencerLength(ADCx, ADC_REG_InitStruct->SequencerLength);
 800308a:	683b      	ldr	r3, [r7, #0]
 800308c:	685b      	ldr	r3, [r3, #4]
 800308e:	4619      	mov	r1, r3
 8003090:	6878      	ldr	r0, [r7, #4]
 8003092:	f7ff ff35 	bl	8002f00 <LL_ADC_REG_SetSequencerLength>
 8003096:	e001      	b.n	800309c <LL_ADC_REG_Init+0x84>
  }
  else
  {
    /* Initialization error: ADC instance is not disabled. */
    status = ERROR;
 8003098:	2301      	movs	r3, #1
 800309a:	73fb      	strb	r3, [r7, #15]
  }
  return status;
 800309c:	7bfb      	ldrb	r3, [r7, #15]
}
 800309e:	4618      	mov	r0, r3
 80030a0:	3710      	adds	r7, #16
 80030a2:	46bd      	mov	sp, r7
 80030a4:	bd80      	pop	{r7, pc}
 80030a6:	bf00      	nop
 80030a8:	fff0c03c 	.word	0xfff0c03c

080030ac <LL_GPIO_SetPinMode>:
{
 80030ac:	b480      	push	{r7}
 80030ae:	b089      	sub	sp, #36	; 0x24
 80030b0:	af00      	add	r7, sp, #0
 80030b2:	60f8      	str	r0, [r7, #12]
 80030b4:	60b9      	str	r1, [r7, #8]
 80030b6:	607a      	str	r2, [r7, #4]
  MODIFY_REG(GPIOx->MODER, (GPIO_MODER_MODER0 << (POSITION_VAL(Pin) * 2U)), (Mode << (POSITION_VAL(Pin) * 2U)));
 80030b8:	68fb      	ldr	r3, [r7, #12]
 80030ba:	681a      	ldr	r2, [r3, #0]
 80030bc:	68bb      	ldr	r3, [r7, #8]
 80030be:	617b      	str	r3, [r7, #20]
   __ASM volatile ("rbit %0, %1" : "=r" (result) : "r" (value) );
 80030c0:	697b      	ldr	r3, [r7, #20]
 80030c2:	fa93 f3a3 	rbit	r3, r3
 80030c6:	613b      	str	r3, [r7, #16]
  return result;
 80030c8:	693b      	ldr	r3, [r7, #16]
 80030ca:	fab3 f383 	clz	r3, r3
 80030ce:	b2db      	uxtb	r3, r3
 80030d0:	005b      	lsls	r3, r3, #1
 80030d2:	2103      	movs	r1, #3
 80030d4:	fa01 f303 	lsl.w	r3, r1, r3
 80030d8:	43db      	mvns	r3, r3
 80030da:	401a      	ands	r2, r3
 80030dc:	68bb      	ldr	r3, [r7, #8]
 80030de:	61fb      	str	r3, [r7, #28]
   __ASM volatile ("rbit %0, %1" : "=r" (result) : "r" (value) );
 80030e0:	69fb      	ldr	r3, [r7, #28]
 80030e2:	fa93 f3a3 	rbit	r3, r3
 80030e6:	61bb      	str	r3, [r7, #24]
  return result;
 80030e8:	69bb      	ldr	r3, [r7, #24]
 80030ea:	fab3 f383 	clz	r3, r3
 80030ee:	b2db      	uxtb	r3, r3
 80030f0:	005b      	lsls	r3, r3, #1
 80030f2:	6879      	ldr	r1, [r7, #4]
 80030f4:	fa01 f303 	lsl.w	r3, r1, r3
 80030f8:	431a      	orrs	r2, r3
 80030fa:	68fb      	ldr	r3, [r7, #12]
 80030fc:	601a      	str	r2, [r3, #0]
}
 80030fe:	bf00      	nop
 8003100:	3724      	adds	r7, #36	; 0x24
 8003102:	46bd      	mov	sp, r7
 8003104:	f85d 7b04 	ldr.w	r7, [sp], #4
 8003108:	4770      	bx	lr

0800310a <LL_GPIO_SetPinOutputType>:
{
 800310a:	b480      	push	{r7}
 800310c:	b085      	sub	sp, #20
 800310e:	af00      	add	r7, sp, #0
 8003110:	60f8      	str	r0, [r7, #12]
 8003112:	60b9      	str	r1, [r7, #8]
 8003114:	607a      	str	r2, [r7, #4]
  MODIFY_REG(GPIOx->OTYPER, PinMask, (PinMask * OutputType));
 8003116:	68fb      	ldr	r3, [r7, #12]
 8003118:	685a      	ldr	r2, [r3, #4]
 800311a:	68bb      	ldr	r3, [r7, #8]
 800311c:	43db      	mvns	r3, r3
 800311e:	401a      	ands	r2, r3
 8003120:	68bb      	ldr	r3, [r7, #8]
 8003122:	6879      	ldr	r1, [r7, #4]
 8003124:	fb01 f303 	mul.w	r3, r1, r3
 8003128:	431a      	orrs	r2, r3
 800312a:	68fb      	ldr	r3, [r7, #12]
 800312c:	605a      	str	r2, [r3, #4]
}
 800312e:	bf00      	nop
 8003130:	3714      	adds	r7, #20
 8003132:	46bd      	mov	sp, r7
 8003134:	f85d 7b04 	ldr.w	r7, [sp], #4
 8003138:	4770      	bx	lr

0800313a <LL_GPIO_SetPinSpeed>:
{
 800313a:	b480      	push	{r7}
 800313c:	b089      	sub	sp, #36	; 0x24
 800313e:	af00      	add	r7, sp, #0
 8003140:	60f8      	str	r0, [r7, #12]
 8003142:	60b9      	str	r1, [r7, #8]
 8003144:	607a      	str	r2, [r7, #4]
  MODIFY_REG(GPIOx->OSPEEDR, (GPIO_OSPEEDER_OSPEEDR0 << (POSITION_VAL(Pin) * 2U)),
 8003146:	68fb      	ldr	r3, [r7, #12]
 8003148:	689a      	ldr	r2, [r3, #8]
 800314a:	68bb      	ldr	r3, [r7, #8]
 800314c:	617b      	str	r3, [r7, #20]
   __ASM volatile ("rbit %0, %1" : "=r" (result) : "r" (value) );
 800314e:	697b      	ldr	r3, [r7, #20]
 8003150:	fa93 f3a3 	rbit	r3, r3
 8003154:	613b      	str	r3, [r7, #16]
  return result;
 8003156:	693b      	ldr	r3, [r7, #16]
 8003158:	fab3 f383 	clz	r3, r3
 800315c:	b2db      	uxtb	r3, r3
 800315e:	005b      	lsls	r3, r3, #1
 8003160:	2103      	movs	r1, #3
 8003162:	fa01 f303 	lsl.w	r3, r1, r3
 8003166:	43db      	mvns	r3, r3
 8003168:	401a      	ands	r2, r3
 800316a:	68bb      	ldr	r3, [r7, #8]
 800316c:	61fb      	str	r3, [r7, #28]
   __ASM volatile ("rbit %0, %1" : "=r" (result) : "r" (value) );
 800316e:	69fb      	ldr	r3, [r7, #28]
 8003170:	fa93 f3a3 	rbit	r3, r3
 8003174:	61bb      	str	r3, [r7, #24]
  return result;
 8003176:	69bb      	ldr	r3, [r7, #24]
 8003178:	fab3 f383 	clz	r3, r3
 800317c:	b2db      	uxtb	r3, r3
 800317e:	005b      	lsls	r3, r3, #1
 8003180:	6879      	ldr	r1, [r7, #4]
 8003182:	fa01 f303 	lsl.w	r3, r1, r3
 8003186:	431a      	orrs	r2, r3
 8003188:	68fb      	ldr	r3, [r7, #12]
 800318a:	609a      	str	r2, [r3, #8]
}
 800318c:	bf00      	nop
 800318e:	3724      	adds	r7, #36	; 0x24
 8003190:	46bd      	mov	sp, r7
 8003192:	f85d 7b04 	ldr.w	r7, [sp], #4
 8003196:	4770      	bx	lr

08003198 <LL_GPIO_SetPinPull>:
{
 8003198:	b480      	push	{r7}
 800319a:	b089      	sub	sp, #36	; 0x24
 800319c:	af00      	add	r7, sp, #0
 800319e:	60f8      	str	r0, [r7, #12]
 80031a0:	60b9      	str	r1, [r7, #8]
 80031a2:	607a      	str	r2, [r7, #4]
  MODIFY_REG(GPIOx->PUPDR, (GPIO_PUPDR_PUPDR0 << (POSITION_VAL(Pin) * 2U)), (Pull << (POSITION_VAL(Pin) * 2U)));
 80031a4:	68fb      	ldr	r3, [r7, #12]
 80031a6:	68da      	ldr	r2, [r3, #12]
 80031a8:	68bb      	ldr	r3, [r7, #8]
 80031aa:	617b      	str	r3, [r7, #20]
   __ASM volatile ("rbit %0, %1" : "=r" (result) : "r" (value) );
 80031ac:	697b      	ldr	r3, [r7, #20]
 80031ae:	fa93 f3a3 	rbit	r3, r3
 80031b2:	613b      	str	r3, [r7, #16]
  return result;
 80031b4:	693b      	ldr	r3, [r7, #16]
 80031b6:	fab3 f383 	clz	r3, r3
 80031ba:	b2db      	uxtb	r3, r3
 80031bc:	005b      	lsls	r3, r3, #1
 80031be:	2103      	movs	r1, #3
 80031c0:	fa01 f303 	lsl.w	r3, r1, r3
 80031c4:	43db      	mvns	r3, r3
 80031c6:	401a      	ands	r2, r3
 80031c8:	68bb      	ldr	r3, [r7, #8]
 80031ca:	61fb      	str	r3, [r7, #28]
   __ASM volatile ("rbit %0, %1" : "=r" (result) : "r" (value) );
 80031cc:	69fb      	ldr	r3, [r7, #28]
 80031ce:	fa93 f3a3 	rbit	r3, r3
 80031d2:	61bb      	str	r3, [r7, #24]
  return result;
 80031d4:	69bb      	ldr	r3, [r7, #24]
 80031d6:	fab3 f383 	clz	r3, r3
 80031da:	b2db      	uxtb	r3, r3
 80031dc:	005b      	lsls	r3, r3, #1
 80031de:	6879      	ldr	r1, [r7, #4]
 80031e0:	fa01 f303 	lsl.w	r3, r1, r3
 80031e4:	431a      	orrs	r2, r3
 80031e6:	68fb      	ldr	r3, [r7, #12]
 80031e8:	60da      	str	r2, [r3, #12]
}
 80031ea:	bf00      	nop
 80031ec:	3724      	adds	r7, #36	; 0x24
 80031ee:	46bd      	mov	sp, r7
 80031f0:	f85d 7b04 	ldr.w	r7, [sp], #4
 80031f4:	4770      	bx	lr

080031f6 <LL_GPIO_SetAFPin_0_7>:
{
 80031f6:	b480      	push	{r7}
 80031f8:	b089      	sub	sp, #36	; 0x24
 80031fa:	af00      	add	r7, sp, #0
 80031fc:	60f8      	str	r0, [r7, #12]
 80031fe:	60b9      	str	r1, [r7, #8]
 8003200:	607a      	str	r2, [r7, #4]
  MODIFY_REG(GPIOx->AFR[0], (GPIO_AFRL_AFRL0 << (POSITION_VAL(Pin) * 4U)),
 8003202:	68fb      	ldr	r3, [r7, #12]
 8003204:	6a1a      	ldr	r2, [r3, #32]
 8003206:	68bb      	ldr	r3, [r7, #8]
 8003208:	617b      	str	r3, [r7, #20]
   __ASM volatile ("rbit %0, %1" : "=r" (result) : "r" (value) );
 800320a:	697b      	ldr	r3, [r7, #20]
 800320c:	fa93 f3a3 	rbit	r3, r3
 8003210:	613b      	str	r3, [r7, #16]
  return result;
 8003212:	693b      	ldr	r3, [r7, #16]
 8003214:	fab3 f383 	clz	r3, r3
 8003218:	b2db      	uxtb	r3, r3
 800321a:	009b      	lsls	r3, r3, #2
 800321c:	210f      	movs	r1, #15
 800321e:	fa01 f303 	lsl.w	r3, r1, r3
 8003222:	43db      	mvns	r3, r3
 8003224:	401a      	ands	r2, r3
 8003226:	68bb      	ldr	r3, [r7, #8]
 8003228:	61fb      	str	r3, [r7, #28]
   __ASM volatile ("rbit %0, %1" : "=r" (result) : "r" (value) );
 800322a:	69fb      	ldr	r3, [r7, #28]
 800322c:	fa93 f3a3 	rbit	r3, r3
 8003230:	61bb      	str	r3, [r7, #24]
  return result;
 8003232:	69bb      	ldr	r3, [r7, #24]
 8003234:	fab3 f383 	clz	r3, r3
 8003238:	b2db      	uxtb	r3, r3
 800323a:	009b      	lsls	r3, r3, #2
 800323c:	6879      	ldr	r1, [r7, #4]
 800323e:	fa01 f303 	lsl.w	r3, r1, r3
 8003242:	431a      	orrs	r2, r3
 8003244:	68fb      	ldr	r3, [r7, #12]
 8003246:	621a      	str	r2, [r3, #32]
}
 8003248:	bf00      	nop
 800324a:	3724      	adds	r7, #36	; 0x24
 800324c:	46bd      	mov	sp, r7
 800324e:	f85d 7b04 	ldr.w	r7, [sp], #4
 8003252:	4770      	bx	lr

08003254 <LL_GPIO_SetAFPin_8_15>:
{
 8003254:	b480      	push	{r7}
 8003256:	b089      	sub	sp, #36	; 0x24
 8003258:	af00      	add	r7, sp, #0
 800325a:	60f8      	str	r0, [r7, #12]
 800325c:	60b9      	str	r1, [r7, #8]
 800325e:	607a      	str	r2, [r7, #4]
  MODIFY_REG(GPIOx->AFR[1], (GPIO_AFRH_AFRH0 << (POSITION_VAL(Pin >> 8U) * 4U)),
 8003260:	68fb      	ldr	r3, [r7, #12]
 8003262:	6a5a      	ldr	r2, [r3, #36]	; 0x24
 8003264:	68bb      	ldr	r3, [r7, #8]
 8003266:	0a1b      	lsrs	r3, r3, #8
 8003268:	617b      	str	r3, [r7, #20]
   __ASM volatile ("rbit %0, %1" : "=r" (result) : "r" (value) );
 800326a:	697b      	ldr	r3, [r7, #20]
 800326c:	fa93 f3a3 	rbit	r3, r3
 8003270:	613b      	str	r3, [r7, #16]
  return result;
 8003272:	693b      	ldr	r3, [r7, #16]
 8003274:	fab3 f383 	clz	r3, r3
 8003278:	b2db      	uxtb	r3, r3
 800327a:	009b      	lsls	r3, r3, #2
 800327c:	210f      	movs	r1, #15
 800327e:	fa01 f303 	lsl.w	r3, r1, r3
 8003282:	43db      	mvns	r3, r3
 8003284:	401a      	ands	r2, r3
 8003286:	68bb      	ldr	r3, [r7, #8]
 8003288:	0a1b      	lsrs	r3, r3, #8
 800328a:	61fb      	str	r3, [r7, #28]
   __ASM volatile ("rbit %0, %1" : "=r" (result) : "r" (value) );
 800328c:	69fb      	ldr	r3, [r7, #28]
 800328e:	fa93 f3a3 	rbit	r3, r3
 8003292:	61bb      	str	r3, [r7, #24]
  return result;
 8003294:	69bb      	ldr	r3, [r7, #24]
 8003296:	fab3 f383 	clz	r3, r3
 800329a:	b2db      	uxtb	r3, r3
 800329c:	009b      	lsls	r3, r3, #2
 800329e:	6879      	ldr	r1, [r7, #4]
 80032a0:	fa01 f303 	lsl.w	r3, r1, r3
 80032a4:	431a      	orrs	r2, r3
 80032a6:	68fb      	ldr	r3, [r7, #12]
 80032a8:	625a      	str	r2, [r3, #36]	; 0x24
}
 80032aa:	bf00      	nop
 80032ac:	3724      	adds	r7, #36	; 0x24
 80032ae:	46bd      	mov	sp, r7
 80032b0:	f85d 7b04 	ldr.w	r7, [sp], #4
 80032b4:	4770      	bx	lr

080032b6 <LL_GPIO_Init>:
  * @retval An ErrorStatus enumeration value:
  *          - SUCCESS: GPIO registers are initialized according to GPIO_InitStruct content
  *          - ERROR:   Not applicable
  */
ErrorStatus LL_GPIO_Init(GPIO_TypeDef *GPIOx, LL_GPIO_InitTypeDef *GPIO_InitStruct)
{
 80032b6:	b580      	push	{r7, lr}
 80032b8:	b088      	sub	sp, #32
 80032ba:	af00      	add	r7, sp, #0
 80032bc:	6078      	str	r0, [r7, #4]
 80032be:	6039      	str	r1, [r7, #0]
  assert_param(IS_LL_GPIO_MODE(GPIO_InitStruct->Mode));
  assert_param(IS_LL_GPIO_PULL(GPIO_InitStruct->Pull));

  /* ------------------------- Configure the port pins ---------------- */
  /* Initialize  pinpos on first pin set */
  pinpos = POSITION_VAL(GPIO_InitStruct->Pin);
 80032c0:	683b      	ldr	r3, [r7, #0]
 80032c2:	681b      	ldr	r3, [r3, #0]
 80032c4:	617b      	str	r3, [r7, #20]
   __ASM volatile ("rbit %0, %1" : "=r" (result) : "r" (value) );
 80032c6:	697b      	ldr	r3, [r7, #20]
 80032c8:	fa93 f3a3 	rbit	r3, r3
 80032cc:	613b      	str	r3, [r7, #16]
  return result;
 80032ce:	693b      	ldr	r3, [r7, #16]
 80032d0:	fab3 f383 	clz	r3, r3
 80032d4:	b2db      	uxtb	r3, r3
 80032d6:	61fb      	str	r3, [r7, #28]

  /* Configure the port pins */
  while (((GPIO_InitStruct->Pin) >> pinpos) != 0x00u)
 80032d8:	e051      	b.n	800337e <LL_GPIO_Init+0xc8>
  {
    /* Get current io position */
    currentpin = (GPIO_InitStruct->Pin) & (0x00000001uL << pinpos);
 80032da:	683b      	ldr	r3, [r7, #0]
 80032dc:	681a      	ldr	r2, [r3, #0]
 80032de:	2101      	movs	r1, #1
 80032e0:	69fb      	ldr	r3, [r7, #28]
 80032e2:	fa01 f303 	lsl.w	r3, r1, r3
 80032e6:	4013      	ands	r3, r2
 80032e8:	61bb      	str	r3, [r7, #24]

    if (currentpin != 0x00u)
 80032ea:	69bb      	ldr	r3, [r7, #24]
 80032ec:	2b00      	cmp	r3, #0
 80032ee:	d043      	beq.n	8003378 <LL_GPIO_Init+0xc2>
    {
      if ((GPIO_InitStruct->Mode == LL_GPIO_MODE_OUTPUT) || (GPIO_InitStruct->Mode == LL_GPIO_MODE_ALTERNATE))
 80032f0:	683b      	ldr	r3, [r7, #0]
 80032f2:	685b      	ldr	r3, [r3, #4]
 80032f4:	2b01      	cmp	r3, #1
 80032f6:	d003      	beq.n	8003300 <LL_GPIO_Init+0x4a>
 80032f8:	683b      	ldr	r3, [r7, #0]
 80032fa:	685b      	ldr	r3, [r3, #4]
 80032fc:	2b02      	cmp	r3, #2
 80032fe:	d10e      	bne.n	800331e <LL_GPIO_Init+0x68>
      {
        /* Check Speed mode parameters */
        assert_param(IS_LL_GPIO_SPEED(GPIO_InitStruct->Speed));

        /* Speed mode configuration */
        LL_GPIO_SetPinSpeed(GPIOx, currentpin, GPIO_InitStruct->Speed);
 8003300:	683b      	ldr	r3, [r7, #0]
 8003302:	689b      	ldr	r3, [r3, #8]
 8003304:	461a      	mov	r2, r3
 8003306:	69b9      	ldr	r1, [r7, #24]
 8003308:	6878      	ldr	r0, [r7, #4]
 800330a:	f7ff ff16 	bl	800313a <LL_GPIO_SetPinSpeed>

        /* Check Output mode parameters */
        assert_param(IS_LL_GPIO_OUTPUT_TYPE(GPIO_InitStruct->OutputType));

        /* Output mode configuration*/
        LL_GPIO_SetPinOutputType(GPIOx, GPIO_InitStruct->Pin, GPIO_InitStruct->OutputType);
 800330e:	683b      	ldr	r3, [r7, #0]
 8003310:	6819      	ldr	r1, [r3, #0]
 8003312:	683b      	ldr	r3, [r7, #0]
 8003314:	68db      	ldr	r3, [r3, #12]
 8003316:	461a      	mov	r2, r3
 8003318:	6878      	ldr	r0, [r7, #4]
 800331a:	f7ff fef6 	bl	800310a <LL_GPIO_SetPinOutputType>
      }

      /* Pull-up Pull down resistor configuration*/
      LL_GPIO_SetPinPull(GPIOx, currentpin, GPIO_InitStruct->Pull);
 800331e:	683b      	ldr	r3, [r7, #0]
 8003320:	691b      	ldr	r3, [r3, #16]
 8003322:	461a      	mov	r2, r3
 8003324:	69b9      	ldr	r1, [r7, #24]
 8003326:	6878      	ldr	r0, [r7, #4]
 8003328:	f7ff ff36 	bl	8003198 <LL_GPIO_SetPinPull>

      if (GPIO_InitStruct->Mode == LL_GPIO_MODE_ALTERNATE)
 800332c:	683b      	ldr	r3, [r7, #0]
 800332e:	685b      	ldr	r3, [r3, #4]
 8003330:	2b02      	cmp	r3, #2
 8003332:	d11a      	bne.n	800336a <LL_GPIO_Init+0xb4>
 8003334:	69bb      	ldr	r3, [r7, #24]
 8003336:	60fb      	str	r3, [r7, #12]
   __ASM volatile ("rbit %0, %1" : "=r" (result) : "r" (value) );
 8003338:	68fb      	ldr	r3, [r7, #12]
 800333a:	fa93 f3a3 	rbit	r3, r3
 800333e:	60bb      	str	r3, [r7, #8]
  return result;
 8003340:	68bb      	ldr	r3, [r7, #8]
      {
        /* Check Alternate parameter */
        assert_param(IS_LL_GPIO_ALTERNATE(GPIO_InitStruct->Alternate));

        /* Speed mode configuration */
        if (POSITION_VAL(currentpin) < 0x00000008U)
 8003342:	fab3 f383 	clz	r3, r3
 8003346:	b2db      	uxtb	r3, r3
 8003348:	2b07      	cmp	r3, #7
 800334a:	d807      	bhi.n	800335c <LL_GPIO_Init+0xa6>
        {
          LL_GPIO_SetAFPin_0_7(GPIOx, currentpin, GPIO_InitStruct->Alternate);
 800334c:	683b      	ldr	r3, [r7, #0]
 800334e:	695b      	ldr	r3, [r3, #20]
 8003350:	461a      	mov	r2, r3
 8003352:	69b9      	ldr	r1, [r7, #24]
 8003354:	6878      	ldr	r0, [r7, #4]
 8003356:	f7ff ff4e 	bl	80031f6 <LL_GPIO_SetAFPin_0_7>
 800335a:	e006      	b.n	800336a <LL_GPIO_Init+0xb4>
        }
        else
        {
          LL_GPIO_SetAFPin_8_15(GPIOx, currentpin, GPIO_InitStruct->Alternate);
 800335c:	683b      	ldr	r3, [r7, #0]
 800335e:	695b      	ldr	r3, [r3, #20]
 8003360:	461a      	mov	r2, r3
 8003362:	69b9      	ldr	r1, [r7, #24]
 8003364:	6878      	ldr	r0, [r7, #4]
 8003366:	f7ff ff75 	bl	8003254 <LL_GPIO_SetAFPin_8_15>
        }
      }

      /* Pin Mode configuration */
      LL_GPIO_SetPinMode(GPIOx, currentpin, GPIO_InitStruct->Mode);
 800336a:	683b      	ldr	r3, [r7, #0]
 800336c:	685b      	ldr	r3, [r3, #4]
 800336e:	461a      	mov	r2, r3
 8003370:	69b9      	ldr	r1, [r7, #24]
 8003372:	6878      	ldr	r0, [r7, #4]
 8003374:	f7ff fe9a 	bl	80030ac <LL_GPIO_SetPinMode>
    }
    pinpos++;
 8003378:	69fb      	ldr	r3, [r7, #28]
 800337a:	3301      	adds	r3, #1
 800337c:	61fb      	str	r3, [r7, #28]
  while (((GPIO_InitStruct->Pin) >> pinpos) != 0x00u)
 800337e:	683b      	ldr	r3, [r7, #0]
 8003380:	681a      	ldr	r2, [r3, #0]
 8003382:	69fb      	ldr	r3, [r7, #28]
 8003384:	fa22 f303 	lsr.w	r3, r2, r3
 8003388:	2b00      	cmp	r3, #0
 800338a:	d1a6      	bne.n	80032da <LL_GPIO_Init+0x24>
  }

  return (SUCCESS);
 800338c:	2300      	movs	r3, #0
}
 800338e:	4618      	mov	r0, r3
 8003390:	3720      	adds	r7, #32
 8003392:	46bd      	mov	sp, r7
 8003394:	bd80      	pop	{r7, pc}

08003396 <LL_I2C_Enable>:
{
 8003396:	b480      	push	{r7}
 8003398:	b083      	sub	sp, #12
 800339a:	af00      	add	r7, sp, #0
 800339c:	6078      	str	r0, [r7, #4]
  SET_BIT(I2Cx->CR1, I2C_CR1_PE);
 800339e:	687b      	ldr	r3, [r7, #4]
 80033a0:	681b      	ldr	r3, [r3, #0]
 80033a2:	f043 0201 	orr.w	r2, r3, #1
 80033a6:	687b      	ldr	r3, [r7, #4]
 80033a8:	601a      	str	r2, [r3, #0]
}
 80033aa:	bf00      	nop
 80033ac:	370c      	adds	r7, #12
 80033ae:	46bd      	mov	sp, r7
 80033b0:	f85d 7b04 	ldr.w	r7, [sp], #4
 80033b4:	4770      	bx	lr

080033b6 <LL_I2C_Disable>:
{
 80033b6:	b480      	push	{r7}
 80033b8:	b083      	sub	sp, #12
 80033ba:	af00      	add	r7, sp, #0
 80033bc:	6078      	str	r0, [r7, #4]
  CLEAR_BIT(I2Cx->CR1, I2C_CR1_PE);
 80033be:	687b      	ldr	r3, [r7, #4]
 80033c0:	681b      	ldr	r3, [r3, #0]
 80033c2:	f023 0201 	bic.w	r2, r3, #1
 80033c6:	687b      	ldr	r3, [r7, #4]
 80033c8:	601a      	str	r2, [r3, #0]
}
 80033ca:	bf00      	nop
 80033cc:	370c      	adds	r7, #12
 80033ce:	46bd      	mov	sp, r7
 80033d0:	f85d 7b04 	ldr.w	r7, [sp], #4
 80033d4:	4770      	bx	lr

080033d6 <LL_I2C_ConfigFilters>:
{
 80033d6:	b480      	push	{r7}
 80033d8:	b085      	sub	sp, #20
 80033da:	af00      	add	r7, sp, #0
 80033dc:	60f8      	str	r0, [r7, #12]
 80033de:	60b9      	str	r1, [r7, #8]
 80033e0:	607a      	str	r2, [r7, #4]
  MODIFY_REG(I2Cx->CR1, I2C_CR1_ANFOFF | I2C_CR1_DNF, AnalogFilter | (DigitalFilter << I2C_CR1_DNF_Pos));
 80033e2:	68fb      	ldr	r3, [r7, #12]
 80033e4:	681b      	ldr	r3, [r3, #0]
 80033e6:	f423 52f8 	bic.w	r2, r3, #7936	; 0x1f00
 80033ea:	687b      	ldr	r3, [r7, #4]
 80033ec:	0219      	lsls	r1, r3, #8
 80033ee:	68bb      	ldr	r3, [r7, #8]
 80033f0:	430b      	orrs	r3, r1
 80033f2:	431a      	orrs	r2, r3
 80033f4:	68fb      	ldr	r3, [r7, #12]
 80033f6:	601a      	str	r2, [r3, #0]
}
 80033f8:	bf00      	nop
 80033fa:	3714      	adds	r7, #20
 80033fc:	46bd      	mov	sp, r7
 80033fe:	f85d 7b04 	ldr.w	r7, [sp], #4
 8003402:	4770      	bx	lr

08003404 <LL_I2C_SetOwnAddress1>:
{
 8003404:	b480      	push	{r7}
 8003406:	b085      	sub	sp, #20
 8003408:	af00      	add	r7, sp, #0
 800340a:	60f8      	str	r0, [r7, #12]
 800340c:	60b9      	str	r1, [r7, #8]
 800340e:	607a      	str	r2, [r7, #4]
  MODIFY_REG(I2Cx->OAR1, I2C_OAR1_OA1 | I2C_OAR1_OA1MODE, OwnAddress1 | OwnAddrSize);
 8003410:	68fb      	ldr	r3, [r7, #12]
 8003412:	689b      	ldr	r3, [r3, #8]
 8003414:	f423 63ff 	bic.w	r3, r3, #2040	; 0x7f8
 8003418:	f023 0307 	bic.w	r3, r3, #7
 800341c:	68b9      	ldr	r1, [r7, #8]
 800341e:	687a      	ldr	r2, [r7, #4]
 8003420:	430a      	orrs	r2, r1
 8003422:	431a      	orrs	r2, r3
 8003424:	68fb      	ldr	r3, [r7, #12]
 8003426:	609a      	str	r2, [r3, #8]
}
 8003428:	bf00      	nop
 800342a:	3714      	adds	r7, #20
 800342c:	46bd      	mov	sp, r7
 800342e:	f85d 7b04 	ldr.w	r7, [sp], #4
 8003432:	4770      	bx	lr

08003434 <LL_I2C_EnableOwnAddress1>:
{
 8003434:	b480      	push	{r7}
 8003436:	b083      	sub	sp, #12
 8003438:	af00      	add	r7, sp, #0
 800343a:	6078      	str	r0, [r7, #4]
  SET_BIT(I2Cx->OAR1, I2C_OAR1_OA1EN);
 800343c:	687b      	ldr	r3, [r7, #4]
 800343e:	689b      	ldr	r3, [r3, #8]
 8003440:	f443 4200 	orr.w	r2, r3, #32768	; 0x8000
 8003444:	687b      	ldr	r3, [r7, #4]
 8003446:	609a      	str	r2, [r3, #8]
}
 8003448:	bf00      	nop
 800344a:	370c      	adds	r7, #12
 800344c:	46bd      	mov	sp, r7
 800344e:	f85d 7b04 	ldr.w	r7, [sp], #4
 8003452:	4770      	bx	lr

08003454 <LL_I2C_DisableOwnAddress1>:
{
 8003454:	b480      	push	{r7}
 8003456:	b083      	sub	sp, #12
 8003458:	af00      	add	r7, sp, #0
 800345a:	6078      	str	r0, [r7, #4]
  CLEAR_BIT(I2Cx->OAR1, I2C_OAR1_OA1EN);
 800345c:	687b      	ldr	r3, [r7, #4]
 800345e:	689b      	ldr	r3, [r3, #8]
 8003460:	f423 4200 	bic.w	r2, r3, #32768	; 0x8000
 8003464:	687b      	ldr	r3, [r7, #4]
 8003466:	609a      	str	r2, [r3, #8]
}
 8003468:	bf00      	nop
 800346a:	370c      	adds	r7, #12
 800346c:	46bd      	mov	sp, r7
 800346e:	f85d 7b04 	ldr.w	r7, [sp], #4
 8003472:	4770      	bx	lr

08003474 <LL_I2C_SetTiming>:
{
 8003474:	b480      	push	{r7}
 8003476:	b083      	sub	sp, #12
 8003478:	af00      	add	r7, sp, #0
 800347a:	6078      	str	r0, [r7, #4]
 800347c:	6039      	str	r1, [r7, #0]
  WRITE_REG(I2Cx->TIMINGR, Timing);
 800347e:	687b      	ldr	r3, [r7, #4]
 8003480:	683a      	ldr	r2, [r7, #0]
 8003482:	611a      	str	r2, [r3, #16]
}
 8003484:	bf00      	nop
 8003486:	370c      	adds	r7, #12
 8003488:	46bd      	mov	sp, r7
 800348a:	f85d 7b04 	ldr.w	r7, [sp], #4
 800348e:	4770      	bx	lr

08003490 <LL_I2C_SetMode>:
{
 8003490:	b480      	push	{r7}
 8003492:	b083      	sub	sp, #12
 8003494:	af00      	add	r7, sp, #0
 8003496:	6078      	str	r0, [r7, #4]
 8003498:	6039      	str	r1, [r7, #0]
  MODIFY_REG(I2Cx->CR1, I2C_CR1_SMBHEN | I2C_CR1_SMBDEN, PeripheralMode);
 800349a:	687b      	ldr	r3, [r7, #4]
 800349c:	681b      	ldr	r3, [r3, #0]
 800349e:	f423 1240 	bic.w	r2, r3, #3145728	; 0x300000
 80034a2:	683b      	ldr	r3, [r7, #0]
 80034a4:	431a      	orrs	r2, r3
 80034a6:	687b      	ldr	r3, [r7, #4]
 80034a8:	601a      	str	r2, [r3, #0]
}
 80034aa:	bf00      	nop
 80034ac:	370c      	adds	r7, #12
 80034ae:	46bd      	mov	sp, r7
 80034b0:	f85d 7b04 	ldr.w	r7, [sp], #4
 80034b4:	4770      	bx	lr

080034b6 <LL_I2C_AcknowledgeNextData>:
{
 80034b6:	b480      	push	{r7}
 80034b8:	b083      	sub	sp, #12
 80034ba:	af00      	add	r7, sp, #0
 80034bc:	6078      	str	r0, [r7, #4]
 80034be:	6039      	str	r1, [r7, #0]
  MODIFY_REG(I2Cx->CR2, I2C_CR2_NACK, TypeAcknowledge);
 80034c0:	687b      	ldr	r3, [r7, #4]
 80034c2:	685b      	ldr	r3, [r3, #4]
 80034c4:	f423 4200 	bic.w	r2, r3, #32768	; 0x8000
 80034c8:	683b      	ldr	r3, [r7, #0]
 80034ca:	431a      	orrs	r2, r3
 80034cc:	687b      	ldr	r3, [r7, #4]
 80034ce:	605a      	str	r2, [r3, #4]
}
 80034d0:	bf00      	nop
 80034d2:	370c      	adds	r7, #12
 80034d4:	46bd      	mov	sp, r7
 80034d6:	f85d 7b04 	ldr.w	r7, [sp], #4
 80034da:	4770      	bx	lr

080034dc <LL_I2C_Init>:
  * @retval An ErrorStatus enumeration value:
  *          - SUCCESS: I2C registers are initialized
  *          - ERROR: Not applicable
  */
ErrorStatus LL_I2C_Init(I2C_TypeDef *I2Cx, LL_I2C_InitTypeDef *I2C_InitStruct)
{
 80034dc:	b580      	push	{r7, lr}
 80034de:	b082      	sub	sp, #8
 80034e0:	af00      	add	r7, sp, #0
 80034e2:	6078      	str	r0, [r7, #4]
 80034e4:	6039      	str	r1, [r7, #0]
  assert_param(IS_LL_I2C_OWN_ADDRESS1(I2C_InitStruct->OwnAddress1));
  assert_param(IS_LL_I2C_TYPE_ACKNOWLEDGE(I2C_InitStruct->TypeAcknowledge));
  assert_param(IS_LL_I2C_OWN_ADDRSIZE(I2C_InitStruct->OwnAddrSize));

  /* Disable the selected I2Cx Peripheral */
  LL_I2C_Disable(I2Cx);
 80034e6:	6878      	ldr	r0, [r7, #4]
 80034e8:	f7ff ff65 	bl	80033b6 <LL_I2C_Disable>
  /*---------------------------- I2Cx CR1 Configuration ------------------------
   * Configure the analog and digital noise filters with parameters :
   * - AnalogFilter: I2C_CR1_ANFOFF bit
   * - DigitalFilter: I2C_CR1_DNF[3:0] bits
   */
  LL_I2C_ConfigFilters(I2Cx, I2C_InitStruct->AnalogFilter, I2C_InitStruct->DigitalFilter);
 80034ec:	683b      	ldr	r3, [r7, #0]
 80034ee:	6899      	ldr	r1, [r3, #8]
 80034f0:	683b      	ldr	r3, [r7, #0]
 80034f2:	68db      	ldr	r3, [r3, #12]
 80034f4:	461a      	mov	r2, r3
 80034f6:	6878      	ldr	r0, [r7, #4]
 80034f8:	f7ff ff6d 	bl	80033d6 <LL_I2C_ConfigFilters>
  /*---------------------------- I2Cx TIMINGR Configuration --------------------
   * Configure the SDA setup, hold time and the SCL high, low period with parameter :
   * - Timing: I2C_TIMINGR_PRESC[3:0], I2C_TIMINGR_SCLDEL[3:0], I2C_TIMINGR_SDADEL[3:0],
   *           I2C_TIMINGR_SCLH[7:0] and I2C_TIMINGR_SCLL[7:0] bits
   */
  LL_I2C_SetTiming(I2Cx, I2C_InitStruct->Timing);
 80034fc:	683b      	ldr	r3, [r7, #0]
 80034fe:	685b      	ldr	r3, [r3, #4]
 8003500:	4619      	mov	r1, r3
 8003502:	6878      	ldr	r0, [r7, #4]
 8003504:	f7ff ffb6 	bl	8003474 <LL_I2C_SetTiming>

  /* Enable the selected I2Cx Peripheral */
  LL_I2C_Enable(I2Cx);
 8003508:	6878      	ldr	r0, [r7, #4]
 800350a:	f7ff ff44 	bl	8003396 <LL_I2C_Enable>
  /*---------------------------- I2Cx OAR1 Configuration -----------------------
   * Disable, Configure and Enable I2Cx device own address 1 with parameters :
   * - OwnAddress1:  I2C_OAR1_OA1[9:0] bits
   * - OwnAddrSize:  I2C_OAR1_OA1MODE bit
   */
  LL_I2C_DisableOwnAddress1(I2Cx);
 800350e:	6878      	ldr	r0, [r7, #4]
 8003510:	f7ff ffa0 	bl	8003454 <LL_I2C_DisableOwnAddress1>
  LL_I2C_SetOwnAddress1(I2Cx, I2C_InitStruct->OwnAddress1, I2C_InitStruct->OwnAddrSize);
 8003514:	683b      	ldr	r3, [r7, #0]
 8003516:	6919      	ldr	r1, [r3, #16]
 8003518:	683b      	ldr	r3, [r7, #0]
 800351a:	699b      	ldr	r3, [r3, #24]
 800351c:	461a      	mov	r2, r3
 800351e:	6878      	ldr	r0, [r7, #4]
 8003520:	f7ff ff70 	bl	8003404 <LL_I2C_SetOwnAddress1>

  /* OwnAdress1 == 0 is reserved for General Call address */
  if (I2C_InitStruct->OwnAddress1 != 0U)
 8003524:	683b      	ldr	r3, [r7, #0]
 8003526:	691b      	ldr	r3, [r3, #16]
 8003528:	2b00      	cmp	r3, #0
 800352a:	d002      	beq.n	8003532 <LL_I2C_Init+0x56>
  {
    LL_I2C_EnableOwnAddress1(I2Cx);
 800352c:	6878      	ldr	r0, [r7, #4]
 800352e:	f7ff ff81 	bl	8003434 <LL_I2C_EnableOwnAddress1>

  /*---------------------------- I2Cx MODE Configuration -----------------------
  * Configure I2Cx peripheral mode with parameter :
   * - PeripheralMode: I2C_CR1_SMBDEN and I2C_CR1_SMBHEN bits
   */
  LL_I2C_SetMode(I2Cx, I2C_InitStruct->PeripheralMode);
 8003532:	683b      	ldr	r3, [r7, #0]
 8003534:	681b      	ldr	r3, [r3, #0]
 8003536:	4619      	mov	r1, r3
 8003538:	6878      	ldr	r0, [r7, #4]
 800353a:	f7ff ffa9 	bl	8003490 <LL_I2C_SetMode>
  /*---------------------------- I2Cx CR2 Configuration ------------------------
   * Configure the ACKnowledge or Non ACKnowledge condition
   * after the address receive match code or next received byte with parameter :
   * - TypeAcknowledge: I2C_CR2_NACK bit
   */
  LL_I2C_AcknowledgeNextData(I2Cx, I2C_InitStruct->TypeAcknowledge);
 800353e:	683b      	ldr	r3, [r7, #0]
 8003540:	695b      	ldr	r3, [r3, #20]
 8003542:	4619      	mov	r1, r3
 8003544:	6878      	ldr	r0, [r7, #4]
 8003546:	f7ff ffb6 	bl	80034b6 <LL_I2C_AcknowledgeNextData>

  return SUCCESS;
 800354a:	2300      	movs	r3, #0
}
 800354c:	4618      	mov	r0, r3
 800354e:	3708      	adds	r7, #8
 8003550:	46bd      	mov	sp, r7
 8003552:	bd80      	pop	{r7, pc}

08003554 <LL_RTC_SetHourFormat>:
{
 8003554:	b480      	push	{r7}
 8003556:	b083      	sub	sp, #12
 8003558:	af00      	add	r7, sp, #0
 800355a:	6078      	str	r0, [r7, #4]
 800355c:	6039      	str	r1, [r7, #0]
  MODIFY_REG(RTCx->CR, RTC_CR_FMT, HourFormat);
 800355e:	687b      	ldr	r3, [r7, #4]
 8003560:	689b      	ldr	r3, [r3, #8]
 8003562:	f023 0240 	bic.w	r2, r3, #64	; 0x40
 8003566:	683b      	ldr	r3, [r7, #0]
 8003568:	431a      	orrs	r2, r3
 800356a:	687b      	ldr	r3, [r7, #4]
 800356c:	609a      	str	r2, [r3, #8]
}
 800356e:	bf00      	nop
 8003570:	370c      	adds	r7, #12
 8003572:	46bd      	mov	sp, r7
 8003574:	f85d 7b04 	ldr.w	r7, [sp], #4
 8003578:	4770      	bx	lr

0800357a <LL_RTC_GetHourFormat>:
{
 800357a:	b480      	push	{r7}
 800357c:	b083      	sub	sp, #12
 800357e:	af00      	add	r7, sp, #0
 8003580:	6078      	str	r0, [r7, #4]
  return (uint32_t)(READ_BIT(RTCx->CR, RTC_CR_FMT));
 8003582:	687b      	ldr	r3, [r7, #4]
 8003584:	689b      	ldr	r3, [r3, #8]
 8003586:	f003 0340 	and.w	r3, r3, #64	; 0x40
}
 800358a:	4618      	mov	r0, r3
 800358c:	370c      	adds	r7, #12
 800358e:	46bd      	mov	sp, r7
 8003590:	f85d 7b04 	ldr.w	r7, [sp], #4
 8003594:	4770      	bx	lr

08003596 <LL_RTC_EnableInitMode>:
{
 8003596:	b480      	push	{r7}
 8003598:	b083      	sub	sp, #12
 800359a:	af00      	add	r7, sp, #0
 800359c:	6078      	str	r0, [r7, #4]
  WRITE_REG(RTCx->ISR, RTC_INIT_MASK);
 800359e:	687b      	ldr	r3, [r7, #4]
 80035a0:	f04f 32ff 	mov.w	r2, #4294967295
 80035a4:	60da      	str	r2, [r3, #12]
}
 80035a6:	bf00      	nop
 80035a8:	370c      	adds	r7, #12
 80035aa:	46bd      	mov	sp, r7
 80035ac:	f85d 7b04 	ldr.w	r7, [sp], #4
 80035b0:	4770      	bx	lr

080035b2 <LL_RTC_DisableInitMode>:
{
 80035b2:	b480      	push	{r7}
 80035b4:	b083      	sub	sp, #12
 80035b6:	af00      	add	r7, sp, #0
 80035b8:	6078      	str	r0, [r7, #4]
  WRITE_REG(RTCx->ISR, (uint32_t)~RTC_ISR_INIT);
 80035ba:	687b      	ldr	r3, [r7, #4]
 80035bc:	f06f 0280 	mvn.w	r2, #128	; 0x80
 80035c0:	60da      	str	r2, [r3, #12]
}
 80035c2:	bf00      	nop
 80035c4:	370c      	adds	r7, #12
 80035c6:	46bd      	mov	sp, r7
 80035c8:	f85d 7b04 	ldr.w	r7, [sp], #4
 80035cc:	4770      	bx	lr

080035ce <LL_RTC_IsShadowRegBypassEnabled>:
{
 80035ce:	b480      	push	{r7}
 80035d0:	b083      	sub	sp, #12
 80035d2:	af00      	add	r7, sp, #0
 80035d4:	6078      	str	r0, [r7, #4]
  return (READ_BIT(RTCx->CR, RTC_CR_BYPSHAD) == (RTC_CR_BYPSHAD));
 80035d6:	687b      	ldr	r3, [r7, #4]
 80035d8:	689b      	ldr	r3, [r3, #8]
 80035da:	f003 0320 	and.w	r3, r3, #32
 80035de:	2b20      	cmp	r3, #32
 80035e0:	bf0c      	ite	eq
 80035e2:	2301      	moveq	r3, #1
 80035e4:	2300      	movne	r3, #0
 80035e6:	b2db      	uxtb	r3, r3
}
 80035e8:	4618      	mov	r0, r3
 80035ea:	370c      	adds	r7, #12
 80035ec:	46bd      	mov	sp, r7
 80035ee:	f85d 7b04 	ldr.w	r7, [sp], #4
 80035f2:	4770      	bx	lr

080035f4 <LL_RTC_SetAsynchPrescaler>:
{
 80035f4:	b480      	push	{r7}
 80035f6:	b083      	sub	sp, #12
 80035f8:	af00      	add	r7, sp, #0
 80035fa:	6078      	str	r0, [r7, #4]
 80035fc:	6039      	str	r1, [r7, #0]
  MODIFY_REG(RTCx->PRER, RTC_PRER_PREDIV_A, AsynchPrescaler << RTC_PRER_PREDIV_A_Pos);
 80035fe:	687b      	ldr	r3, [r7, #4]
 8003600:	691b      	ldr	r3, [r3, #16]
 8003602:	f423 02fe 	bic.w	r2, r3, #8323072	; 0x7f0000
 8003606:	683b      	ldr	r3, [r7, #0]
 8003608:	041b      	lsls	r3, r3, #16
 800360a:	431a      	orrs	r2, r3
 800360c:	687b      	ldr	r3, [r7, #4]
 800360e:	611a      	str	r2, [r3, #16]
}
 8003610:	bf00      	nop
 8003612:	370c      	adds	r7, #12
 8003614:	46bd      	mov	sp, r7
 8003616:	f85d 7b04 	ldr.w	r7, [sp], #4
 800361a:	4770      	bx	lr

0800361c <LL_RTC_SetSynchPrescaler>:
{
 800361c:	b480      	push	{r7}
 800361e:	b083      	sub	sp, #12
 8003620:	af00      	add	r7, sp, #0
 8003622:	6078      	str	r0, [r7, #4]
 8003624:	6039      	str	r1, [r7, #0]
  MODIFY_REG(RTCx->PRER, RTC_PRER_PREDIV_S, SynchPrescaler);
 8003626:	687b      	ldr	r3, [r7, #4]
 8003628:	691b      	ldr	r3, [r3, #16]
 800362a:	f423 43ff 	bic.w	r3, r3, #32640	; 0x7f80
 800362e:	f023 037f 	bic.w	r3, r3, #127	; 0x7f
 8003632:	683a      	ldr	r2, [r7, #0]
 8003634:	431a      	orrs	r2, r3
 8003636:	687b      	ldr	r3, [r7, #4]
 8003638:	611a      	str	r2, [r3, #16]
}
 800363a:	bf00      	nop
 800363c:	370c      	adds	r7, #12
 800363e:	46bd      	mov	sp, r7
 8003640:	f85d 7b04 	ldr.w	r7, [sp], #4
 8003644:	4770      	bx	lr

08003646 <LL_RTC_EnableWriteProtection>:
{
 8003646:	b480      	push	{r7}
 8003648:	b083      	sub	sp, #12
 800364a:	af00      	add	r7, sp, #0
 800364c:	6078      	str	r0, [r7, #4]
  WRITE_REG(RTCx->WPR, RTC_WRITE_PROTECTION_DISABLE);
 800364e:	687b      	ldr	r3, [r7, #4]
 8003650:	22ff      	movs	r2, #255	; 0xff
 8003652:	625a      	str	r2, [r3, #36]	; 0x24
}
 8003654:	bf00      	nop
 8003656:	370c      	adds	r7, #12
 8003658:	46bd      	mov	sp, r7
 800365a:	f85d 7b04 	ldr.w	r7, [sp], #4
 800365e:	4770      	bx	lr

08003660 <LL_RTC_DisableWriteProtection>:
{
 8003660:	b480      	push	{r7}
 8003662:	b083      	sub	sp, #12
 8003664:	af00      	add	r7, sp, #0
 8003666:	6078      	str	r0, [r7, #4]
  WRITE_REG(RTCx->WPR, RTC_WRITE_PROTECTION_ENABLE_1);
 8003668:	687b      	ldr	r3, [r7, #4]
 800366a:	22ca      	movs	r2, #202	; 0xca
 800366c:	625a      	str	r2, [r3, #36]	; 0x24
  WRITE_REG(RTCx->WPR, RTC_WRITE_PROTECTION_ENABLE_2);
 800366e:	687b      	ldr	r3, [r7, #4]
 8003670:	2253      	movs	r2, #83	; 0x53
 8003672:	625a      	str	r2, [r3, #36]	; 0x24
}
 8003674:	bf00      	nop
 8003676:	370c      	adds	r7, #12
 8003678:	46bd      	mov	sp, r7
 800367a:	f85d 7b04 	ldr.w	r7, [sp], #4
 800367e:	4770      	bx	lr

08003680 <LL_RTC_TIME_Config>:
{
 8003680:	b480      	push	{r7}
 8003682:	b087      	sub	sp, #28
 8003684:	af00      	add	r7, sp, #0
 8003686:	60f8      	str	r0, [r7, #12]
 8003688:	60b9      	str	r1, [r7, #8]
 800368a:	607a      	str	r2, [r7, #4]
 800368c:	603b      	str	r3, [r7, #0]
  uint32_t temp = 0U;
 800368e:	2300      	movs	r3, #0
 8003690:	617b      	str	r3, [r7, #20]
         (((Hours & 0xF0U) << (RTC_TR_HT_Pos - 4U)) | ((Hours & 0x0FU) << RTC_TR_HU_Pos))     | \
 8003692:	687b      	ldr	r3, [r7, #4]
 8003694:	041b      	lsls	r3, r3, #16
 8003696:	f403 027f 	and.w	r2, r3, #16711680	; 0xff0000
  temp = Format12_24                                                                                    | \
 800369a:	68bb      	ldr	r3, [r7, #8]
 800369c:	431a      	orrs	r2, r3
         (((Minutes & 0xF0U) << (RTC_TR_MNT_Pos - 4U)) | ((Minutes & 0x0FU) << RTC_TR_MNU_Pos)) | \
 800369e:	683b      	ldr	r3, [r7, #0]
 80036a0:	021b      	lsls	r3, r3, #8
 80036a2:	b29b      	uxth	r3, r3
         (((Hours & 0xF0U) << (RTC_TR_HT_Pos - 4U)) | ((Hours & 0x0FU) << RTC_TR_HU_Pos))     | \
 80036a4:	431a      	orrs	r2, r3
         (((Seconds & 0xF0U) << (RTC_TR_ST_Pos - 4U)) | ((Seconds & 0x0FU) << RTC_TR_SU_Pos));
 80036a6:	6a3b      	ldr	r3, [r7, #32]
 80036a8:	b2db      	uxtb	r3, r3
  temp = Format12_24                                                                                    | \
 80036aa:	4313      	orrs	r3, r2
 80036ac:	617b      	str	r3, [r7, #20]
  MODIFY_REG(RTCx->TR, (RTC_TR_PM | RTC_TR_HT | RTC_TR_HU | RTC_TR_MNT | RTC_TR_MNU | RTC_TR_ST | RTC_TR_SU), temp);
 80036ae:	68fb      	ldr	r3, [r7, #12]
 80036b0:	681b      	ldr	r3, [r3, #0]
 80036b2:	f023 137f 	bic.w	r3, r3, #8323199	; 0x7f007f
 80036b6:	f423 43fe 	bic.w	r3, r3, #32512	; 0x7f00
 80036ba:	697a      	ldr	r2, [r7, #20]
 80036bc:	431a      	orrs	r2, r3
 80036be:	68fb      	ldr	r3, [r7, #12]
 80036c0:	601a      	str	r2, [r3, #0]
}
 80036c2:	bf00      	nop
 80036c4:	371c      	adds	r7, #28
 80036c6:	46bd      	mov	sp, r7
 80036c8:	f85d 7b04 	ldr.w	r7, [sp], #4
 80036cc:	4770      	bx	lr
	...

080036d0 <LL_RTC_DATE_Config>:
{
 80036d0:	b480      	push	{r7}
 80036d2:	b087      	sub	sp, #28
 80036d4:	af00      	add	r7, sp, #0
 80036d6:	60f8      	str	r0, [r7, #12]
 80036d8:	60b9      	str	r1, [r7, #8]
 80036da:	607a      	str	r2, [r7, #4]
 80036dc:	603b      	str	r3, [r7, #0]
  uint32_t temp = 0U;
 80036de:	2300      	movs	r3, #0
 80036e0:	617b      	str	r3, [r7, #20]
  temp = (WeekDay << RTC_DR_WDU_Pos)                                                        | \
 80036e2:	68bb      	ldr	r3, [r7, #8]
 80036e4:	035a      	lsls	r2, r3, #13
         (((Year & 0xF0U) << (RTC_DR_YT_Pos - 4U)) | ((Year & 0x0FU) << RTC_DR_YU_Pos))   | \
 80036e6:	6a3b      	ldr	r3, [r7, #32]
 80036e8:	041b      	lsls	r3, r3, #16
 80036ea:	f403 037f 	and.w	r3, r3, #16711680	; 0xff0000
  temp = (WeekDay << RTC_DR_WDU_Pos)                                                        | \
 80036ee:	431a      	orrs	r2, r3
         (((Month & 0xF0U) << (RTC_DR_MT_Pos - 4U)) | ((Month & 0x0FU) << RTC_DR_MU_Pos)) | \
 80036f0:	683b      	ldr	r3, [r7, #0]
 80036f2:	021b      	lsls	r3, r3, #8
 80036f4:	b29b      	uxth	r3, r3
         (((Year & 0xF0U) << (RTC_DR_YT_Pos - 4U)) | ((Year & 0x0FU) << RTC_DR_YU_Pos))   | \
 80036f6:	431a      	orrs	r2, r3
         (((Day & 0xF0U) << (RTC_DR_DT_Pos - 4U)) | ((Day & 0x0FU) << RTC_DR_DU_Pos));
 80036f8:	687b      	ldr	r3, [r7, #4]
 80036fa:	b2db      	uxtb	r3, r3
  temp = (WeekDay << RTC_DR_WDU_Pos)                                                        | \
 80036fc:	4313      	orrs	r3, r2
 80036fe:	617b      	str	r3, [r7, #20]
  MODIFY_REG(RTCx->DR, (RTC_DR_WDU | RTC_DR_MT | RTC_DR_MU | RTC_DR_DT | RTC_DR_DU | RTC_DR_YT | RTC_DR_YU), temp);
 8003700:	68fb      	ldr	r3, [r7, #12]
 8003702:	685a      	ldr	r2, [r3, #4]
 8003704:	4b05      	ldr	r3, [pc, #20]	; (800371c <LL_RTC_DATE_Config+0x4c>)
 8003706:	4013      	ands	r3, r2
 8003708:	697a      	ldr	r2, [r7, #20]
 800370a:	431a      	orrs	r2, r3
 800370c:	68fb      	ldr	r3, [r7, #12]
 800370e:	605a      	str	r2, [r3, #4]
}
 8003710:	bf00      	nop
 8003712:	371c      	adds	r7, #28
 8003714:	46bd      	mov	sp, r7
 8003716:	f85d 7b04 	ldr.w	r7, [sp], #4
 800371a:	4770      	bx	lr
 800371c:	ff0000c0 	.word	0xff0000c0

08003720 <LL_RTC_IsActiveFlag_INIT>:
{
 8003720:	b480      	push	{r7}
 8003722:	b083      	sub	sp, #12
 8003724:	af00      	add	r7, sp, #0
 8003726:	6078      	str	r0, [r7, #4]
  return (READ_BIT(RTCx->ISR, RTC_ISR_INITF) == (RTC_ISR_INITF));
 8003728:	687b      	ldr	r3, [r7, #4]
 800372a:	68db      	ldr	r3, [r3, #12]
 800372c:	f003 0340 	and.w	r3, r3, #64	; 0x40
 8003730:	2b40      	cmp	r3, #64	; 0x40
 8003732:	bf0c      	ite	eq
 8003734:	2301      	moveq	r3, #1
 8003736:	2300      	movne	r3, #0
 8003738:	b2db      	uxtb	r3, r3
}
 800373a:	4618      	mov	r0, r3
 800373c:	370c      	adds	r7, #12
 800373e:	46bd      	mov	sp, r7
 8003740:	f85d 7b04 	ldr.w	r7, [sp], #4
 8003744:	4770      	bx	lr

08003746 <LL_RTC_IsActiveFlag_RS>:
{
 8003746:	b480      	push	{r7}
 8003748:	b083      	sub	sp, #12
 800374a:	af00      	add	r7, sp, #0
 800374c:	6078      	str	r0, [r7, #4]
  return (READ_BIT(RTCx->ISR, RTC_ISR_RSF) == (RTC_ISR_RSF));
 800374e:	687b      	ldr	r3, [r7, #4]
 8003750:	68db      	ldr	r3, [r3, #12]
 8003752:	f003 0320 	and.w	r3, r3, #32
 8003756:	2b20      	cmp	r3, #32
 8003758:	bf0c      	ite	eq
 800375a:	2301      	moveq	r3, #1
 800375c:	2300      	movne	r3, #0
 800375e:	b2db      	uxtb	r3, r3
}
 8003760:	4618      	mov	r0, r3
 8003762:	370c      	adds	r7, #12
 8003764:	46bd      	mov	sp, r7
 8003766:	f85d 7b04 	ldr.w	r7, [sp], #4
 800376a:	4770      	bx	lr

0800376c <LL_RTC_ClearFlag_RS>:
{
 800376c:	b480      	push	{r7}
 800376e:	b083      	sub	sp, #12
 8003770:	af00      	add	r7, sp, #0
 8003772:	6078      	str	r0, [r7, #4]
  WRITE_REG(RTCx->ISR, (~((RTC_ISR_RSF | RTC_ISR_INIT) & 0x0000FFFFU) | (RTCx->ISR & RTC_ISR_INIT)));
 8003774:	687b      	ldr	r3, [r7, #4]
 8003776:	68db      	ldr	r3, [r3, #12]
 8003778:	f003 0380 	and.w	r3, r3, #128	; 0x80
 800377c:	f063 02a0 	orn	r2, r3, #160	; 0xa0
 8003780:	687b      	ldr	r3, [r7, #4]
 8003782:	60da      	str	r2, [r3, #12]
}
 8003784:	bf00      	nop
 8003786:	370c      	adds	r7, #12
 8003788:	46bd      	mov	sp, r7
 800378a:	f85d 7b04 	ldr.w	r7, [sp], #4
 800378e:	4770      	bx	lr

08003790 <LL_SYSTICK_IsActiveCounterFlag>:
  * @note   It can be used in timeout function on application side.
  * @rmtoll STK_CTRL     COUNTFLAG     LL_SYSTICK_IsActiveCounterFlag
  * @retval State of bit (1 or 0).
  */
__STATIC_INLINE uint32_t LL_SYSTICK_IsActiveCounterFlag(void)
{
 8003790:	b480      	push	{r7}
 8003792:	af00      	add	r7, sp, #0
  return ((SysTick->CTRL & SysTick_CTRL_COUNTFLAG_Msk) == (SysTick_CTRL_COUNTFLAG_Msk));
 8003794:	4b07      	ldr	r3, [pc, #28]	; (80037b4 <LL_SYSTICK_IsActiveCounterFlag+0x24>)
 8003796:	681b      	ldr	r3, [r3, #0]
 8003798:	f403 3380 	and.w	r3, r3, #65536	; 0x10000
 800379c:	f5b3 3f80 	cmp.w	r3, #65536	; 0x10000
 80037a0:	bf0c      	ite	eq
 80037a2:	2301      	moveq	r3, #1
 80037a4:	2300      	movne	r3, #0
 80037a6:	b2db      	uxtb	r3, r3
}
 80037a8:	4618      	mov	r0, r3
 80037aa:	46bd      	mov	sp, r7
 80037ac:	f85d 7b04 	ldr.w	r7, [sp], #4
 80037b0:	4770      	bx	lr
 80037b2:	bf00      	nop
 80037b4:	e000e010 	.word	0xe000e010

080037b8 <LL_RTC_Init>:
  * @retval An ErrorStatus enumeration value:
  *          - SUCCESS: RTC registers are initialized
  *          - ERROR: RTC registers are not initialized
  */
ErrorStatus LL_RTC_Init(RTC_TypeDef *RTCx, LL_RTC_InitTypeDef *RTC_InitStruct)
{
 80037b8:	b580      	push	{r7, lr}
 80037ba:	b084      	sub	sp, #16
 80037bc:	af00      	add	r7, sp, #0
 80037be:	6078      	str	r0, [r7, #4]
 80037c0:	6039      	str	r1, [r7, #0]
  ErrorStatus status = ERROR;
 80037c2:	2301      	movs	r3, #1
 80037c4:	73fb      	strb	r3, [r7, #15]
  assert_param(IS_LL_RTC_HOURFORMAT(RTC_InitStruct->HourFormat));
  assert_param(IS_LL_RTC_ASYNCH_PREDIV(RTC_InitStruct->AsynchPrescaler));
  assert_param(IS_LL_RTC_SYNCH_PREDIV(RTC_InitStruct->SynchPrescaler));

  /* Disable the write protection for RTC registers */
  LL_RTC_DisableWriteProtection(RTCx);
 80037c6:	6878      	ldr	r0, [r7, #4]
 80037c8:	f7ff ff4a 	bl	8003660 <LL_RTC_DisableWriteProtection>

  /* Set Initialization mode */
  if (LL_RTC_EnterInitMode(RTCx) != ERROR)
 80037cc:	6878      	ldr	r0, [r7, #4]
 80037ce:	f000 f96d 	bl	8003aac <LL_RTC_EnterInitMode>
 80037d2:	4603      	mov	r3, r0
 80037d4:	2b01      	cmp	r3, #1
 80037d6:	d016      	beq.n	8003806 <LL_RTC_Init+0x4e>
  {
    /* Set Hour Format */
    LL_RTC_SetHourFormat(RTCx, RTC_InitStruct->HourFormat);
 80037d8:	683b      	ldr	r3, [r7, #0]
 80037da:	681b      	ldr	r3, [r3, #0]
 80037dc:	4619      	mov	r1, r3
 80037de:	6878      	ldr	r0, [r7, #4]
 80037e0:	f7ff feb8 	bl	8003554 <LL_RTC_SetHourFormat>

    /* Configure Synchronous and Asynchronous prescaler factor */
    LL_RTC_SetSynchPrescaler(RTCx, RTC_InitStruct->SynchPrescaler);
 80037e4:	683b      	ldr	r3, [r7, #0]
 80037e6:	689b      	ldr	r3, [r3, #8]
 80037e8:	4619      	mov	r1, r3
 80037ea:	6878      	ldr	r0, [r7, #4]
 80037ec:	f7ff ff16 	bl	800361c <LL_RTC_SetSynchPrescaler>
    LL_RTC_SetAsynchPrescaler(RTCx, RTC_InitStruct->AsynchPrescaler);
 80037f0:	683b      	ldr	r3, [r7, #0]
 80037f2:	685b      	ldr	r3, [r3, #4]
 80037f4:	4619      	mov	r1, r3
 80037f6:	6878      	ldr	r0, [r7, #4]
 80037f8:	f7ff fefc 	bl	80035f4 <LL_RTC_SetAsynchPrescaler>

    /* Exit Initialization mode */
    LL_RTC_DisableInitMode(RTCx);
 80037fc:	6878      	ldr	r0, [r7, #4]
 80037fe:	f7ff fed8 	bl	80035b2 <LL_RTC_DisableInitMode>

    status = SUCCESS;
 8003802:	2300      	movs	r3, #0
 8003804:	73fb      	strb	r3, [r7, #15]
  }
  /* Enable the write protection for RTC registers */
  LL_RTC_EnableWriteProtection(RTCx);
 8003806:	6878      	ldr	r0, [r7, #4]
 8003808:	f7ff ff1d 	bl	8003646 <LL_RTC_EnableWriteProtection>

  return status;
 800380c:	7bfb      	ldrb	r3, [r7, #15]
}
 800380e:	4618      	mov	r0, r3
 8003810:	3710      	adds	r7, #16
 8003812:	46bd      	mov	sp, r7
 8003814:	bd80      	pop	{r7, pc}
	...

08003818 <LL_RTC_TIME_Init>:
  * @retval An ErrorStatus enumeration value:
  *          - SUCCESS: RTC Time register is configured
  *          - ERROR: RTC Time register is not configured
  */
ErrorStatus LL_RTC_TIME_Init(RTC_TypeDef *RTCx, uint32_t RTC_Format, LL_RTC_TimeTypeDef *RTC_TimeStruct)
{
 8003818:	b5f0      	push	{r4, r5, r6, r7, lr}
 800381a:	b089      	sub	sp, #36	; 0x24
 800381c:	af02      	add	r7, sp, #8
 800381e:	60f8      	str	r0, [r7, #12]
 8003820:	60b9      	str	r1, [r7, #8]
 8003822:	607a      	str	r2, [r7, #4]
  ErrorStatus status = ERROR;
 8003824:	2301      	movs	r3, #1
 8003826:	75fb      	strb	r3, [r7, #23]

  /* Check the parameters */
  assert_param(IS_RTC_ALL_INSTANCE(RTCx));
  assert_param(IS_LL_RTC_FORMAT(RTC_Format));

  if (RTC_Format == LL_RTC_FORMAT_BIN)
 8003828:	68bb      	ldr	r3, [r7, #8]
 800382a:	2b00      	cmp	r3, #0
 800382c:	d109      	bne.n	8003842 <LL_RTC_TIME_Init+0x2a>
  {
    if (LL_RTC_GetHourFormat(RTCx) != LL_RTC_HOURFORMAT_24HOUR)
 800382e:	68f8      	ldr	r0, [r7, #12]
 8003830:	f7ff fea3 	bl	800357a <LL_RTC_GetHourFormat>
 8003834:	4603      	mov	r3, r0
 8003836:	2b00      	cmp	r3, #0
 8003838:	d10c      	bne.n	8003854 <LL_RTC_TIME_Init+0x3c>
      assert_param(IS_LL_RTC_HOUR12(RTC_TimeStruct->Hours));
      assert_param(IS_LL_RTC_TIME_FORMAT(RTC_TimeStruct->TimeFormat));
    }
    else
    {
      RTC_TimeStruct->TimeFormat = 0x00U;
 800383a:	687b      	ldr	r3, [r7, #4]
 800383c:	2200      	movs	r2, #0
 800383e:	601a      	str	r2, [r3, #0]
 8003840:	e008      	b.n	8003854 <LL_RTC_TIME_Init+0x3c>
    assert_param(IS_LL_RTC_MINUTES(RTC_TimeStruct->Minutes));
    assert_param(IS_LL_RTC_SECONDS(RTC_TimeStruct->Seconds));
  }
  else
  {
    if (LL_RTC_GetHourFormat(RTCx) != LL_RTC_HOURFORMAT_24HOUR)
 8003842:	68f8      	ldr	r0, [r7, #12]
 8003844:	f7ff fe99 	bl	800357a <LL_RTC_GetHourFormat>
 8003848:	4603      	mov	r3, r0
 800384a:	2b00      	cmp	r3, #0
 800384c:	d102      	bne.n	8003854 <LL_RTC_TIME_Init+0x3c>
      assert_param(IS_LL_RTC_HOUR12(__LL_RTC_CONVERT_BCD2BIN(RTC_TimeStruct->Hours)));
      assert_param(IS_LL_RTC_TIME_FORMAT(RTC_TimeStruct->TimeFormat));
    }
    else
    {
      RTC_TimeStruct->TimeFormat = 0x00U;
 800384e:	687b      	ldr	r3, [r7, #4]
 8003850:	2200      	movs	r2, #0
 8003852:	601a      	str	r2, [r3, #0]
    assert_param(IS_LL_RTC_MINUTES(__LL_RTC_CONVERT_BCD2BIN(RTC_TimeStruct->Minutes)));
    assert_param(IS_LL_RTC_SECONDS(__LL_RTC_CONVERT_BCD2BIN(RTC_TimeStruct->Seconds)));
  }

  /* Disable the write protection for RTC registers */
  LL_RTC_DisableWriteProtection(RTCx);
 8003854:	68f8      	ldr	r0, [r7, #12]
 8003856:	f7ff ff03 	bl	8003660 <LL_RTC_DisableWriteProtection>

  /* Set Initialization mode */
  if (LL_RTC_EnterInitMode(RTCx) != ERROR)
 800385a:	68f8      	ldr	r0, [r7, #12]
 800385c:	f000 f926 	bl	8003aac <LL_RTC_EnterInitMode>
 8003860:	4603      	mov	r3, r0
 8003862:	2b01      	cmp	r3, #1
 8003864:	d073      	beq.n	800394e <LL_RTC_TIME_Init+0x136>
  {
    /* Check the input parameters format */
    if (RTC_Format != LL_RTC_FORMAT_BIN)
 8003866:	68bb      	ldr	r3, [r7, #8]
 8003868:	2b00      	cmp	r3, #0
 800386a:	d00f      	beq.n	800388c <LL_RTC_TIME_Init+0x74>
    {
      LL_RTC_TIME_Config(RTCx, RTC_TimeStruct->TimeFormat, RTC_TimeStruct->Hours,
 800386c:	687b      	ldr	r3, [r7, #4]
 800386e:	6819      	ldr	r1, [r3, #0]
 8003870:	687b      	ldr	r3, [r7, #4]
 8003872:	791b      	ldrb	r3, [r3, #4]
 8003874:	461a      	mov	r2, r3
                         RTC_TimeStruct->Minutes, RTC_TimeStruct->Seconds);
 8003876:	687b      	ldr	r3, [r7, #4]
 8003878:	795b      	ldrb	r3, [r3, #5]
      LL_RTC_TIME_Config(RTCx, RTC_TimeStruct->TimeFormat, RTC_TimeStruct->Hours,
 800387a:	4618      	mov	r0, r3
                         RTC_TimeStruct->Minutes, RTC_TimeStruct->Seconds);
 800387c:	687b      	ldr	r3, [r7, #4]
 800387e:	799b      	ldrb	r3, [r3, #6]
      LL_RTC_TIME_Config(RTCx, RTC_TimeStruct->TimeFormat, RTC_TimeStruct->Hours,
 8003880:	9300      	str	r3, [sp, #0]
 8003882:	4603      	mov	r3, r0
 8003884:	68f8      	ldr	r0, [r7, #12]
 8003886:	f7ff fefb 	bl	8003680 <LL_RTC_TIME_Config>
 800388a:	e04f      	b.n	800392c <LL_RTC_TIME_Init+0x114>
    }
    else
    {
      LL_RTC_TIME_Config(RTCx, RTC_TimeStruct->TimeFormat, __LL_RTC_CONVERT_BIN2BCD(RTC_TimeStruct->Hours),
 800388c:	687b      	ldr	r3, [r7, #4]
 800388e:	681c      	ldr	r4, [r3, #0]
 8003890:	687b      	ldr	r3, [r7, #4]
 8003892:	791b      	ldrb	r3, [r3, #4]
 8003894:	4a32      	ldr	r2, [pc, #200]	; (8003960 <LL_RTC_TIME_Init+0x148>)
 8003896:	fba2 2303 	umull	r2, r3, r2, r3
 800389a:	08db      	lsrs	r3, r3, #3
 800389c:	b2db      	uxtb	r3, r3
 800389e:	011b      	lsls	r3, r3, #4
 80038a0:	b2d8      	uxtb	r0, r3
 80038a2:	687b      	ldr	r3, [r7, #4]
 80038a4:	791a      	ldrb	r2, [r3, #4]
 80038a6:	4b2e      	ldr	r3, [pc, #184]	; (8003960 <LL_RTC_TIME_Init+0x148>)
 80038a8:	fba3 1302 	umull	r1, r3, r3, r2
 80038ac:	08d9      	lsrs	r1, r3, #3
 80038ae:	460b      	mov	r3, r1
 80038b0:	009b      	lsls	r3, r3, #2
 80038b2:	440b      	add	r3, r1
 80038b4:	005b      	lsls	r3, r3, #1
 80038b6:	1ad3      	subs	r3, r2, r3
 80038b8:	b2db      	uxtb	r3, r3
 80038ba:	4303      	orrs	r3, r0
 80038bc:	b2db      	uxtb	r3, r3
 80038be:	461d      	mov	r5, r3
                         __LL_RTC_CONVERT_BIN2BCD(RTC_TimeStruct->Minutes),
 80038c0:	687b      	ldr	r3, [r7, #4]
 80038c2:	795b      	ldrb	r3, [r3, #5]
 80038c4:	4a26      	ldr	r2, [pc, #152]	; (8003960 <LL_RTC_TIME_Init+0x148>)
 80038c6:	fba2 2303 	umull	r2, r3, r2, r3
 80038ca:	08db      	lsrs	r3, r3, #3
 80038cc:	b2db      	uxtb	r3, r3
 80038ce:	011b      	lsls	r3, r3, #4
 80038d0:	b2d8      	uxtb	r0, r3
 80038d2:	687b      	ldr	r3, [r7, #4]
 80038d4:	795a      	ldrb	r2, [r3, #5]
 80038d6:	4b22      	ldr	r3, [pc, #136]	; (8003960 <LL_RTC_TIME_Init+0x148>)
 80038d8:	fba3 1302 	umull	r1, r3, r3, r2
 80038dc:	08d9      	lsrs	r1, r3, #3
 80038de:	460b      	mov	r3, r1
 80038e0:	009b      	lsls	r3, r3, #2
 80038e2:	440b      	add	r3, r1
 80038e4:	005b      	lsls	r3, r3, #1
 80038e6:	1ad3      	subs	r3, r2, r3
 80038e8:	b2db      	uxtb	r3, r3
 80038ea:	4303      	orrs	r3, r0
 80038ec:	b2db      	uxtb	r3, r3
      LL_RTC_TIME_Config(RTCx, RTC_TimeStruct->TimeFormat, __LL_RTC_CONVERT_BIN2BCD(RTC_TimeStruct->Hours),
 80038ee:	461e      	mov	r6, r3
                         __LL_RTC_CONVERT_BIN2BCD(RTC_TimeStruct->Seconds));
 80038f0:	687b      	ldr	r3, [r7, #4]
 80038f2:	799b      	ldrb	r3, [r3, #6]
 80038f4:	4a1a      	ldr	r2, [pc, #104]	; (8003960 <LL_RTC_TIME_Init+0x148>)
 80038f6:	fba2 2303 	umull	r2, r3, r2, r3
 80038fa:	08db      	lsrs	r3, r3, #3
 80038fc:	b2db      	uxtb	r3, r3
 80038fe:	011b      	lsls	r3, r3, #4
 8003900:	b2d8      	uxtb	r0, r3
 8003902:	687b      	ldr	r3, [r7, #4]
 8003904:	799a      	ldrb	r2, [r3, #6]
 8003906:	4b16      	ldr	r3, [pc, #88]	; (8003960 <LL_RTC_TIME_Init+0x148>)
 8003908:	fba3 1302 	umull	r1, r3, r3, r2
 800390c:	08d9      	lsrs	r1, r3, #3
 800390e:	460b      	mov	r3, r1
 8003910:	009b      	lsls	r3, r3, #2
 8003912:	440b      	add	r3, r1
 8003914:	005b      	lsls	r3, r3, #1
 8003916:	1ad3      	subs	r3, r2, r3
 8003918:	b2db      	uxtb	r3, r3
 800391a:	4303      	orrs	r3, r0
 800391c:	b2db      	uxtb	r3, r3
      LL_RTC_TIME_Config(RTCx, RTC_TimeStruct->TimeFormat, __LL_RTC_CONVERT_BIN2BCD(RTC_TimeStruct->Hours),
 800391e:	9300      	str	r3, [sp, #0]
 8003920:	4633      	mov	r3, r6
 8003922:	462a      	mov	r2, r5
 8003924:	4621      	mov	r1, r4
 8003926:	68f8      	ldr	r0, [r7, #12]
 8003928:	f7ff feaa 	bl	8003680 <LL_RTC_TIME_Config>
    }

    /* Exit Initialization mode */
    LL_RTC_DisableInitMode(RTCx);
 800392c:	68f8      	ldr	r0, [r7, #12]
 800392e:	f7ff fe40 	bl	80035b2 <LL_RTC_DisableInitMode>

    /* If  RTC_CR_BYPSHAD bit = 0, wait for synchro else this check is not needed */
    if (LL_RTC_IsShadowRegBypassEnabled(RTCx) == 0U)
 8003932:	68f8      	ldr	r0, [r7, #12]
 8003934:	f7ff fe4b 	bl	80035ce <LL_RTC_IsShadowRegBypassEnabled>
 8003938:	4603      	mov	r3, r0
 800393a:	2b00      	cmp	r3, #0
 800393c:	d105      	bne.n	800394a <LL_RTC_TIME_Init+0x132>
    {
      status = LL_RTC_WaitForSynchro(RTCx);
 800393e:	68f8      	ldr	r0, [r7, #12]
 8003940:	f000 f8e9 	bl	8003b16 <LL_RTC_WaitForSynchro>
 8003944:	4603      	mov	r3, r0
 8003946:	75fb      	strb	r3, [r7, #23]
 8003948:	e001      	b.n	800394e <LL_RTC_TIME_Init+0x136>
    }
    else
    {
      status = SUCCESS;
 800394a:	2300      	movs	r3, #0
 800394c:	75fb      	strb	r3, [r7, #23]
    }
  }
  /* Enable the write protection for RTC registers */
  LL_RTC_EnableWriteProtection(RTCx);
 800394e:	68f8      	ldr	r0, [r7, #12]
 8003950:	f7ff fe79 	bl	8003646 <LL_RTC_EnableWriteProtection>

  return status;
 8003954:	7dfb      	ldrb	r3, [r7, #23]
}
 8003956:	4618      	mov	r0, r3
 8003958:	371c      	adds	r7, #28
 800395a:	46bd      	mov	sp, r7
 800395c:	bdf0      	pop	{r4, r5, r6, r7, pc}
 800395e:	bf00      	nop
 8003960:	cccccccd 	.word	0xcccccccd

08003964 <LL_RTC_DATE_Init>:
  * @retval An ErrorStatus enumeration value:
  *          - SUCCESS: RTC Day register is configured
  *          - ERROR: RTC Day register is not configured
  */
ErrorStatus LL_RTC_DATE_Init(RTC_TypeDef *RTCx, uint32_t RTC_Format, LL_RTC_DateTypeDef *RTC_DateStruct)
{
 8003964:	b5f0      	push	{r4, r5, r6, r7, lr}
 8003966:	b089      	sub	sp, #36	; 0x24
 8003968:	af02      	add	r7, sp, #8
 800396a:	60f8      	str	r0, [r7, #12]
 800396c:	60b9      	str	r1, [r7, #8]
 800396e:	607a      	str	r2, [r7, #4]
  ErrorStatus status = ERROR;
 8003970:	2301      	movs	r3, #1
 8003972:	75fb      	strb	r3, [r7, #23]

  /* Check the parameters */
  assert_param(IS_RTC_ALL_INSTANCE(RTCx));
  assert_param(IS_LL_RTC_FORMAT(RTC_Format));

  if ((RTC_Format == LL_RTC_FORMAT_BIN) && ((RTC_DateStruct->Month & 0x10U) == 0x10U))
 8003974:	68bb      	ldr	r3, [r7, #8]
 8003976:	2b00      	cmp	r3, #0
 8003978:	d10e      	bne.n	8003998 <LL_RTC_DATE_Init+0x34>
 800397a:	687b      	ldr	r3, [r7, #4]
 800397c:	785b      	ldrb	r3, [r3, #1]
 800397e:	f003 0310 	and.w	r3, r3, #16
 8003982:	2b00      	cmp	r3, #0
 8003984:	d008      	beq.n	8003998 <LL_RTC_DATE_Init+0x34>
  {
    RTC_DateStruct->Month = (RTC_DateStruct->Month & (uint32_t)~(0x10U)) + 0x0AU;
 8003986:	687b      	ldr	r3, [r7, #4]
 8003988:	785b      	ldrb	r3, [r3, #1]
 800398a:	f023 0310 	bic.w	r3, r3, #16
 800398e:	b2db      	uxtb	r3, r3
 8003990:	330a      	adds	r3, #10
 8003992:	b2da      	uxtb	r2, r3
 8003994:	687b      	ldr	r3, [r7, #4]
 8003996:	705a      	strb	r2, [r3, #1]
    assert_param(IS_LL_RTC_DAY(__LL_RTC_CONVERT_BCD2BIN(RTC_DateStruct->Day)));
  }
  assert_param(IS_LL_RTC_WEEKDAY(RTC_DateStruct->WeekDay));

  /* Disable the write protection for RTC registers */
  LL_RTC_DisableWriteProtection(RTCx);
 8003998:	68f8      	ldr	r0, [r7, #12]
 800399a:	f7ff fe61 	bl	8003660 <LL_RTC_DisableWriteProtection>

  /* Set Initialization mode */
  if (LL_RTC_EnterInitMode(RTCx) != ERROR)
 800399e:	68f8      	ldr	r0, [r7, #12]
 80039a0:	f000 f884 	bl	8003aac <LL_RTC_EnterInitMode>
 80039a4:	4603      	mov	r3, r0
 80039a6:	2b01      	cmp	r3, #1
 80039a8:	d075      	beq.n	8003a96 <LL_RTC_DATE_Init+0x132>
  {
    /* Check the input parameters format */
    if (RTC_Format != LL_RTC_FORMAT_BIN)
 80039aa:	68bb      	ldr	r3, [r7, #8]
 80039ac:	2b00      	cmp	r3, #0
 80039ae:	d010      	beq.n	80039d2 <LL_RTC_DATE_Init+0x6e>
    {
      LL_RTC_DATE_Config(RTCx, RTC_DateStruct->WeekDay, RTC_DateStruct->Day, RTC_DateStruct->Month, RTC_DateStruct->Year);
 80039b0:	687b      	ldr	r3, [r7, #4]
 80039b2:	781b      	ldrb	r3, [r3, #0]
 80039b4:	4619      	mov	r1, r3
 80039b6:	687b      	ldr	r3, [r7, #4]
 80039b8:	789b      	ldrb	r3, [r3, #2]
 80039ba:	461a      	mov	r2, r3
 80039bc:	687b      	ldr	r3, [r7, #4]
 80039be:	785b      	ldrb	r3, [r3, #1]
 80039c0:	4618      	mov	r0, r3
 80039c2:	687b      	ldr	r3, [r7, #4]
 80039c4:	78db      	ldrb	r3, [r3, #3]
 80039c6:	9300      	str	r3, [sp, #0]
 80039c8:	4603      	mov	r3, r0
 80039ca:	68f8      	ldr	r0, [r7, #12]
 80039cc:	f7ff fe80 	bl	80036d0 <LL_RTC_DATE_Config>
 80039d0:	e050      	b.n	8003a74 <LL_RTC_DATE_Init+0x110>
    }
    else
    {
      LL_RTC_DATE_Config(RTCx, RTC_DateStruct->WeekDay, __LL_RTC_CONVERT_BIN2BCD(RTC_DateStruct->Day),
 80039d2:	687b      	ldr	r3, [r7, #4]
 80039d4:	781b      	ldrb	r3, [r3, #0]
 80039d6:	461c      	mov	r4, r3
 80039d8:	687b      	ldr	r3, [r7, #4]
 80039da:	789b      	ldrb	r3, [r3, #2]
 80039dc:	4a32      	ldr	r2, [pc, #200]	; (8003aa8 <LL_RTC_DATE_Init+0x144>)
 80039de:	fba2 2303 	umull	r2, r3, r2, r3
 80039e2:	08db      	lsrs	r3, r3, #3
 80039e4:	b2db      	uxtb	r3, r3
 80039e6:	011b      	lsls	r3, r3, #4
 80039e8:	b2d8      	uxtb	r0, r3
 80039ea:	687b      	ldr	r3, [r7, #4]
 80039ec:	789a      	ldrb	r2, [r3, #2]
 80039ee:	4b2e      	ldr	r3, [pc, #184]	; (8003aa8 <LL_RTC_DATE_Init+0x144>)
 80039f0:	fba3 1302 	umull	r1, r3, r3, r2
 80039f4:	08d9      	lsrs	r1, r3, #3
 80039f6:	460b      	mov	r3, r1
 80039f8:	009b      	lsls	r3, r3, #2
 80039fa:	440b      	add	r3, r1
 80039fc:	005b      	lsls	r3, r3, #1
 80039fe:	1ad3      	subs	r3, r2, r3
 8003a00:	b2db      	uxtb	r3, r3
 8003a02:	4303      	orrs	r3, r0
 8003a04:	b2db      	uxtb	r3, r3
 8003a06:	461d      	mov	r5, r3
                         __LL_RTC_CONVERT_BIN2BCD(RTC_DateStruct->Month), __LL_RTC_CONVERT_BIN2BCD(RTC_DateStruct->Year));
 8003a08:	687b      	ldr	r3, [r7, #4]
 8003a0a:	785b      	ldrb	r3, [r3, #1]
 8003a0c:	4a26      	ldr	r2, [pc, #152]	; (8003aa8 <LL_RTC_DATE_Init+0x144>)
 8003a0e:	fba2 2303 	umull	r2, r3, r2, r3
 8003a12:	08db      	lsrs	r3, r3, #3
 8003a14:	b2db      	uxtb	r3, r3
 8003a16:	011b      	lsls	r3, r3, #4
 8003a18:	b2d8      	uxtb	r0, r3
 8003a1a:	687b      	ldr	r3, [r7, #4]
 8003a1c:	785a      	ldrb	r2, [r3, #1]
 8003a1e:	4b22      	ldr	r3, [pc, #136]	; (8003aa8 <LL_RTC_DATE_Init+0x144>)
 8003a20:	fba3 1302 	umull	r1, r3, r3, r2
 8003a24:	08d9      	lsrs	r1, r3, #3
 8003a26:	460b      	mov	r3, r1
 8003a28:	009b      	lsls	r3, r3, #2
 8003a2a:	440b      	add	r3, r1
 8003a2c:	005b      	lsls	r3, r3, #1
 8003a2e:	1ad3      	subs	r3, r2, r3
 8003a30:	b2db      	uxtb	r3, r3
 8003a32:	4303      	orrs	r3, r0
 8003a34:	b2db      	uxtb	r3, r3
      LL_RTC_DATE_Config(RTCx, RTC_DateStruct->WeekDay, __LL_RTC_CONVERT_BIN2BCD(RTC_DateStruct->Day),
 8003a36:	461e      	mov	r6, r3
                         __LL_RTC_CONVERT_BIN2BCD(RTC_DateStruct->Month), __LL_RTC_CONVERT_BIN2BCD(RTC_DateStruct->Year));
 8003a38:	687b      	ldr	r3, [r7, #4]
 8003a3a:	78db      	ldrb	r3, [r3, #3]
 8003a3c:	4a1a      	ldr	r2, [pc, #104]	; (8003aa8 <LL_RTC_DATE_Init+0x144>)
 8003a3e:	fba2 2303 	umull	r2, r3, r2, r3
 8003a42:	08db      	lsrs	r3, r3, #3
 8003a44:	b2db      	uxtb	r3, r3
 8003a46:	011b      	lsls	r3, r3, #4
 8003a48:	b2d8      	uxtb	r0, r3
 8003a4a:	687b      	ldr	r3, [r7, #4]
 8003a4c:	78da      	ldrb	r2, [r3, #3]
 8003a4e:	4b16      	ldr	r3, [pc, #88]	; (8003aa8 <LL_RTC_DATE_Init+0x144>)
 8003a50:	fba3 1302 	umull	r1, r3, r3, r2
 8003a54:	08d9      	lsrs	r1, r3, #3
 8003a56:	460b      	mov	r3, r1
 8003a58:	009b      	lsls	r3, r3, #2
 8003a5a:	440b      	add	r3, r1
 8003a5c:	005b      	lsls	r3, r3, #1
 8003a5e:	1ad3      	subs	r3, r2, r3
 8003a60:	b2db      	uxtb	r3, r3
 8003a62:	4303      	orrs	r3, r0
 8003a64:	b2db      	uxtb	r3, r3
      LL_RTC_DATE_Config(RTCx, RTC_DateStruct->WeekDay, __LL_RTC_CONVERT_BIN2BCD(RTC_DateStruct->Day),
 8003a66:	9300      	str	r3, [sp, #0]
 8003a68:	4633      	mov	r3, r6
 8003a6a:	462a      	mov	r2, r5
 8003a6c:	4621      	mov	r1, r4
 8003a6e:	68f8      	ldr	r0, [r7, #12]
 8003a70:	f7ff fe2e 	bl	80036d0 <LL_RTC_DATE_Config>
    }

    /* Exit Initialization mode */
    LL_RTC_DisableInitMode(RTCx);
 8003a74:	68f8      	ldr	r0, [r7, #12]
 8003a76:	f7ff fd9c 	bl	80035b2 <LL_RTC_DisableInitMode>

    /* If  RTC_CR_BYPSHAD bit = 0, wait for synchro else this check is not needed */
    if (LL_RTC_IsShadowRegBypassEnabled(RTCx) == 0U)
 8003a7a:	68f8      	ldr	r0, [r7, #12]
 8003a7c:	f7ff fda7 	bl	80035ce <LL_RTC_IsShadowRegBypassEnabled>
 8003a80:	4603      	mov	r3, r0
 8003a82:	2b00      	cmp	r3, #0
 8003a84:	d105      	bne.n	8003a92 <LL_RTC_DATE_Init+0x12e>
    {
      status = LL_RTC_WaitForSynchro(RTCx);
 8003a86:	68f8      	ldr	r0, [r7, #12]
 8003a88:	f000 f845 	bl	8003b16 <LL_RTC_WaitForSynchro>
 8003a8c:	4603      	mov	r3, r0
 8003a8e:	75fb      	strb	r3, [r7, #23]
 8003a90:	e001      	b.n	8003a96 <LL_RTC_DATE_Init+0x132>
    }
    else
    {
      status = SUCCESS;
 8003a92:	2300      	movs	r3, #0
 8003a94:	75fb      	strb	r3, [r7, #23]
    }
  }
  /* Enable the write protection for RTC registers */
  LL_RTC_EnableWriteProtection(RTCx);
 8003a96:	68f8      	ldr	r0, [r7, #12]
 8003a98:	f7ff fdd5 	bl	8003646 <LL_RTC_EnableWriteProtection>

  return status;
 8003a9c:	7dfb      	ldrb	r3, [r7, #23]
}
 8003a9e:	4618      	mov	r0, r3
 8003aa0:	371c      	adds	r7, #28
 8003aa2:	46bd      	mov	sp, r7
 8003aa4:	bdf0      	pop	{r4, r5, r6, r7, pc}
 8003aa6:	bf00      	nop
 8003aa8:	cccccccd 	.word	0xcccccccd

08003aac <LL_RTC_EnterInitMode>:
  * @retval An ErrorStatus enumeration value:
  *          - SUCCESS: RTC is in Init mode
  *          - ERROR: RTC is not in Init mode
  */
ErrorStatus LL_RTC_EnterInitMode(RTC_TypeDef *RTCx)
{
 8003aac:	b580      	push	{r7, lr}
 8003aae:	b086      	sub	sp, #24
 8003ab0:	af00      	add	r7, sp, #0
 8003ab2:	6078      	str	r0, [r7, #4]
  __IO uint32_t timeout = RTC_INITMODE_TIMEOUT;
 8003ab4:	f44f 737a 	mov.w	r3, #1000	; 0x3e8
 8003ab8:	60fb      	str	r3, [r7, #12]
  ErrorStatus status = SUCCESS;
 8003aba:	2300      	movs	r3, #0
 8003abc:	75fb      	strb	r3, [r7, #23]
  uint32_t tmp = 0U;
 8003abe:	2300      	movs	r3, #0
 8003ac0:	613b      	str	r3, [r7, #16]

  /* Check the parameter */
  assert_param(IS_RTC_ALL_INSTANCE(RTCx));

  /* Check if the Initialization mode is set */
  if (LL_RTC_IsActiveFlag_INIT(RTCx) == 0U)
 8003ac2:	6878      	ldr	r0, [r7, #4]
 8003ac4:	f7ff fe2c 	bl	8003720 <LL_RTC_IsActiveFlag_INIT>
 8003ac8:	4603      	mov	r3, r0
 8003aca:	2b00      	cmp	r3, #0
 8003acc:	d11e      	bne.n	8003b0c <LL_RTC_EnterInitMode+0x60>
  {
    /* Set the Initialization mode */
    LL_RTC_EnableInitMode(RTCx);
 8003ace:	6878      	ldr	r0, [r7, #4]
 8003ad0:	f7ff fd61 	bl	8003596 <LL_RTC_EnableInitMode>

    /* Wait till RTC is in INIT state and if Time out is reached exit */
    tmp = LL_RTC_IsActiveFlag_INIT(RTCx);
 8003ad4:	6878      	ldr	r0, [r7, #4]
 8003ad6:	f7ff fe23 	bl	8003720 <LL_RTC_IsActiveFlag_INIT>
 8003ada:	6138      	str	r0, [r7, #16]
    while ((timeout != 0U) && (tmp != 1U))
 8003adc:	e010      	b.n	8003b00 <LL_RTC_EnterInitMode+0x54>
    {
      if (LL_SYSTICK_IsActiveCounterFlag() == 1U)
 8003ade:	f7ff fe57 	bl	8003790 <LL_SYSTICK_IsActiveCounterFlag>
 8003ae2:	4603      	mov	r3, r0
 8003ae4:	2b01      	cmp	r3, #1
 8003ae6:	d102      	bne.n	8003aee <LL_RTC_EnterInitMode+0x42>
      {
        timeout --;
 8003ae8:	68fb      	ldr	r3, [r7, #12]
 8003aea:	3b01      	subs	r3, #1
 8003aec:	60fb      	str	r3, [r7, #12]
      }
      tmp = LL_RTC_IsActiveFlag_INIT(RTCx);
 8003aee:	6878      	ldr	r0, [r7, #4]
 8003af0:	f7ff fe16 	bl	8003720 <LL_RTC_IsActiveFlag_INIT>
 8003af4:	6138      	str	r0, [r7, #16]
      if (timeout == 0U)
 8003af6:	68fb      	ldr	r3, [r7, #12]
 8003af8:	2b00      	cmp	r3, #0
 8003afa:	d101      	bne.n	8003b00 <LL_RTC_EnterInitMode+0x54>
      {
        status = ERROR;
 8003afc:	2301      	movs	r3, #1
 8003afe:	75fb      	strb	r3, [r7, #23]
    while ((timeout != 0U) && (tmp != 1U))
 8003b00:	68fb      	ldr	r3, [r7, #12]
 8003b02:	2b00      	cmp	r3, #0
 8003b04:	d002      	beq.n	8003b0c <LL_RTC_EnterInitMode+0x60>
 8003b06:	693b      	ldr	r3, [r7, #16]
 8003b08:	2b01      	cmp	r3, #1
 8003b0a:	d1e8      	bne.n	8003ade <LL_RTC_EnterInitMode+0x32>
      }
    }
  }
  return status;
 8003b0c:	7dfb      	ldrb	r3, [r7, #23]
}
 8003b0e:	4618      	mov	r0, r3
 8003b10:	3718      	adds	r7, #24
 8003b12:	46bd      	mov	sp, r7
 8003b14:	bd80      	pop	{r7, pc}

08003b16 <LL_RTC_WaitForSynchro>:
  * @retval An ErrorStatus enumeration value:
  *          - SUCCESS: RTC registers are synchronised
  *          - ERROR: RTC registers are not synchronised
  */
ErrorStatus LL_RTC_WaitForSynchro(RTC_TypeDef *RTCx)
{
 8003b16:	b580      	push	{r7, lr}
 8003b18:	b086      	sub	sp, #24
 8003b1a:	af00      	add	r7, sp, #0
 8003b1c:	6078      	str	r0, [r7, #4]
  __IO uint32_t timeout = RTC_SYNCHRO_TIMEOUT;
 8003b1e:	f44f 737a 	mov.w	r3, #1000	; 0x3e8
 8003b22:	60fb      	str	r3, [r7, #12]
  ErrorStatus status = SUCCESS;
 8003b24:	2300      	movs	r3, #0
 8003b26:	75fb      	strb	r3, [r7, #23]
  uint32_t tmp = 0U;
 8003b28:	2300      	movs	r3, #0
 8003b2a:	613b      	str	r3, [r7, #16]

  /* Check the parameter */
  assert_param(IS_RTC_ALL_INSTANCE(RTCx));

  /* Clear RSF flag */
  LL_RTC_ClearFlag_RS(RTCx);
 8003b2c:	6878      	ldr	r0, [r7, #4]
 8003b2e:	f7ff fe1d 	bl	800376c <LL_RTC_ClearFlag_RS>

  /* Wait the registers to be synchronised */
  tmp = LL_RTC_IsActiveFlag_RS(RTCx);
 8003b32:	6878      	ldr	r0, [r7, #4]
 8003b34:	f7ff fe07 	bl	8003746 <LL_RTC_IsActiveFlag_RS>
 8003b38:	6138      	str	r0, [r7, #16]
  while ((timeout != 0U) && (tmp != 0U))
 8003b3a:	e010      	b.n	8003b5e <LL_RTC_WaitForSynchro+0x48>
  {
    if (LL_SYSTICK_IsActiveCounterFlag() == 1U)
 8003b3c:	f7ff fe28 	bl	8003790 <LL_SYSTICK_IsActiveCounterFlag>
 8003b40:	4603      	mov	r3, r0
 8003b42:	2b01      	cmp	r3, #1
 8003b44:	d102      	bne.n	8003b4c <LL_RTC_WaitForSynchro+0x36>
    {
      timeout--;
 8003b46:	68fb      	ldr	r3, [r7, #12]
 8003b48:	3b01      	subs	r3, #1
 8003b4a:	60fb      	str	r3, [r7, #12]
    }
    tmp = LL_RTC_IsActiveFlag_RS(RTCx);
 8003b4c:	6878      	ldr	r0, [r7, #4]
 8003b4e:	f7ff fdfa 	bl	8003746 <LL_RTC_IsActiveFlag_RS>
 8003b52:	6138      	str	r0, [r7, #16]
    if (timeout == 0U)
 8003b54:	68fb      	ldr	r3, [r7, #12]
 8003b56:	2b00      	cmp	r3, #0
 8003b58:	d101      	bne.n	8003b5e <LL_RTC_WaitForSynchro+0x48>
    {
      status = ERROR;
 8003b5a:	2301      	movs	r3, #1
 8003b5c:	75fb      	strb	r3, [r7, #23]
  while ((timeout != 0U) && (tmp != 0U))
 8003b5e:	68fb      	ldr	r3, [r7, #12]
 8003b60:	2b00      	cmp	r3, #0
 8003b62:	d002      	beq.n	8003b6a <LL_RTC_WaitForSynchro+0x54>
 8003b64:	693b      	ldr	r3, [r7, #16]
 8003b66:	2b00      	cmp	r3, #0
 8003b68:	d1e8      	bne.n	8003b3c <LL_RTC_WaitForSynchro+0x26>
    }
  }

  if (status != ERROR)
 8003b6a:	7dfb      	ldrb	r3, [r7, #23]
 8003b6c:	2b01      	cmp	r3, #1
 8003b6e:	d01e      	beq.n	8003bae <LL_RTC_WaitForSynchro+0x98>
  {
    timeout = RTC_SYNCHRO_TIMEOUT;
 8003b70:	f44f 737a 	mov.w	r3, #1000	; 0x3e8
 8003b74:	60fb      	str	r3, [r7, #12]
    tmp = LL_RTC_IsActiveFlag_RS(RTCx);
 8003b76:	6878      	ldr	r0, [r7, #4]
 8003b78:	f7ff fde5 	bl	8003746 <LL_RTC_IsActiveFlag_RS>
 8003b7c:	6138      	str	r0, [r7, #16]
    while ((timeout != 0U) && (tmp != 1U))
 8003b7e:	e010      	b.n	8003ba2 <LL_RTC_WaitForSynchro+0x8c>
    {
      if (LL_SYSTICK_IsActiveCounterFlag() == 1U)
 8003b80:	f7ff fe06 	bl	8003790 <LL_SYSTICK_IsActiveCounterFlag>
 8003b84:	4603      	mov	r3, r0
 8003b86:	2b01      	cmp	r3, #1
 8003b88:	d102      	bne.n	8003b90 <LL_RTC_WaitForSynchro+0x7a>
      {
        timeout--;
 8003b8a:	68fb      	ldr	r3, [r7, #12]
 8003b8c:	3b01      	subs	r3, #1
 8003b8e:	60fb      	str	r3, [r7, #12]
      }
      tmp = LL_RTC_IsActiveFlag_RS(RTCx);
 8003b90:	6878      	ldr	r0, [r7, #4]
 8003b92:	f7ff fdd8 	bl	8003746 <LL_RTC_IsActiveFlag_RS>
 8003b96:	6138      	str	r0, [r7, #16]
      if (timeout == 0U)
 8003b98:	68fb      	ldr	r3, [r7, #12]
 8003b9a:	2b00      	cmp	r3, #0
 8003b9c:	d101      	bne.n	8003ba2 <LL_RTC_WaitForSynchro+0x8c>
      {
        status = ERROR;
 8003b9e:	2301      	movs	r3, #1
 8003ba0:	75fb      	strb	r3, [r7, #23]
    while ((timeout != 0U) && (tmp != 1U))
 8003ba2:	68fb      	ldr	r3, [r7, #12]
 8003ba4:	2b00      	cmp	r3, #0
 8003ba6:	d002      	beq.n	8003bae <LL_RTC_WaitForSynchro+0x98>
 8003ba8:	693b      	ldr	r3, [r7, #16]
 8003baa:	2b01      	cmp	r3, #1
 8003bac:	d1e8      	bne.n	8003b80 <LL_RTC_WaitForSynchro+0x6a>
      }
    }
  }

  return (status);
 8003bae:	7dfb      	ldrb	r3, [r7, #23]
}
 8003bb0:	4618      	mov	r0, r3
 8003bb2:	3718      	adds	r7, #24
 8003bb4:	46bd      	mov	sp, r7
 8003bb6:	bd80      	pop	{r7, pc}

08003bb8 <LL_SPI_IsEnabled>:
{
 8003bb8:	b480      	push	{r7}
 8003bba:	b083      	sub	sp, #12
 8003bbc:	af00      	add	r7, sp, #0
 8003bbe:	6078      	str	r0, [r7, #4]
  return ((READ_BIT(SPIx->CR1, SPI_CR1_SPE) == (SPI_CR1_SPE)) ? 1UL : 0UL);
 8003bc0:	687b      	ldr	r3, [r7, #4]
 8003bc2:	681b      	ldr	r3, [r3, #0]
 8003bc4:	f003 0340 	and.w	r3, r3, #64	; 0x40
 8003bc8:	2b40      	cmp	r3, #64	; 0x40
 8003bca:	d101      	bne.n	8003bd0 <LL_SPI_IsEnabled+0x18>
 8003bcc:	2301      	movs	r3, #1
 8003bce:	e000      	b.n	8003bd2 <LL_SPI_IsEnabled+0x1a>
 8003bd0:	2300      	movs	r3, #0
}
 8003bd2:	4618      	mov	r0, r3
 8003bd4:	370c      	adds	r7, #12
 8003bd6:	46bd      	mov	sp, r7
 8003bd8:	f85d 7b04 	ldr.w	r7, [sp], #4
 8003bdc:	4770      	bx	lr

08003bde <LL_SPI_SetRxFIFOThreshold>:
{
 8003bde:	b480      	push	{r7}
 8003be0:	b083      	sub	sp, #12
 8003be2:	af00      	add	r7, sp, #0
 8003be4:	6078      	str	r0, [r7, #4]
 8003be6:	6039      	str	r1, [r7, #0]
  MODIFY_REG(SPIx->CR2, SPI_CR2_FRXTH, Threshold);
 8003be8:	687b      	ldr	r3, [r7, #4]
 8003bea:	685b      	ldr	r3, [r3, #4]
 8003bec:	f423 5280 	bic.w	r2, r3, #4096	; 0x1000
 8003bf0:	683b      	ldr	r3, [r7, #0]
 8003bf2:	431a      	orrs	r2, r3
 8003bf4:	687b      	ldr	r3, [r7, #4]
 8003bf6:	605a      	str	r2, [r3, #4]
}
 8003bf8:	bf00      	nop
 8003bfa:	370c      	adds	r7, #12
 8003bfc:	46bd      	mov	sp, r7
 8003bfe:	f85d 7b04 	ldr.w	r7, [sp], #4
 8003c02:	4770      	bx	lr

08003c04 <LL_SPI_SetCRCPolynomial>:
{
 8003c04:	b480      	push	{r7}
 8003c06:	b083      	sub	sp, #12
 8003c08:	af00      	add	r7, sp, #0
 8003c0a:	6078      	str	r0, [r7, #4]
 8003c0c:	6039      	str	r1, [r7, #0]
  WRITE_REG(SPIx->CRCPR, (uint16_t)CRCPoly);
 8003c0e:	683b      	ldr	r3, [r7, #0]
 8003c10:	b29b      	uxth	r3, r3
 8003c12:	461a      	mov	r2, r3
 8003c14:	687b      	ldr	r3, [r7, #4]
 8003c16:	611a      	str	r2, [r3, #16]
}
 8003c18:	bf00      	nop
 8003c1a:	370c      	adds	r7, #12
 8003c1c:	46bd      	mov	sp, r7
 8003c1e:	f85d 7b04 	ldr.w	r7, [sp], #4
 8003c22:	4770      	bx	lr

08003c24 <LL_SPI_Init>:
  * @param  SPIx SPI Instance
  * @param  SPI_InitStruct pointer to a @ref LL_SPI_InitTypeDef structure
  * @retval An ErrorStatus enumeration value. (Return always SUCCESS)
  */
ErrorStatus LL_SPI_Init(SPI_TypeDef *SPIx, LL_SPI_InitTypeDef *SPI_InitStruct)
{
 8003c24:	b580      	push	{r7, lr}
 8003c26:	b084      	sub	sp, #16
 8003c28:	af00      	add	r7, sp, #0
 8003c2a:	6078      	str	r0, [r7, #4]
 8003c2c:	6039      	str	r1, [r7, #0]
  ErrorStatus status = ERROR;
 8003c2e:	2301      	movs	r3, #1
 8003c30:	73fb      	strb	r3, [r7, #15]
  assert_param(IS_LL_SPI_NSS(SPI_InitStruct->NSS));
  assert_param(IS_LL_SPI_BAUDRATE(SPI_InitStruct->BaudRate));
  assert_param(IS_LL_SPI_BITORDER(SPI_InitStruct->BitOrder));
  assert_param(IS_LL_SPI_CRCCALCULATION(SPI_InitStruct->CRCCalculation));

  if (LL_SPI_IsEnabled(SPIx) == 0x00000000U)
 8003c32:	6878      	ldr	r0, [r7, #4]
 8003c34:	f7ff ffc0 	bl	8003bb8 <LL_SPI_IsEnabled>
 8003c38:	4603      	mov	r3, r0
 8003c3a:	2b00      	cmp	r3, #0
 8003c3c:	d145      	bne.n	8003cca <LL_SPI_Init+0xa6>
     * - NSS management:     SPI_CR1_SSM bit
     * - BaudRate prescaler: SPI_CR1_BR[2:0] bits
     * - BitOrder:           SPI_CR1_LSBFIRST bit
     * - CRCCalculation:     SPI_CR1_CRCEN bit
     */
    MODIFY_REG(SPIx->CR1,
 8003c3e:	687b      	ldr	r3, [r7, #4]
 8003c40:	681b      	ldr	r3, [r3, #0]
 8003c42:	f423 437f 	bic.w	r3, r3, #65280	; 0xff00
 8003c46:	f023 03bf 	bic.w	r3, r3, #191	; 0xbf
 8003c4a:	683a      	ldr	r2, [r7, #0]
 8003c4c:	6811      	ldr	r1, [r2, #0]
 8003c4e:	683a      	ldr	r2, [r7, #0]
 8003c50:	6852      	ldr	r2, [r2, #4]
 8003c52:	4311      	orrs	r1, r2
 8003c54:	683a      	ldr	r2, [r7, #0]
 8003c56:	68d2      	ldr	r2, [r2, #12]
 8003c58:	4311      	orrs	r1, r2
 8003c5a:	683a      	ldr	r2, [r7, #0]
 8003c5c:	6912      	ldr	r2, [r2, #16]
 8003c5e:	4311      	orrs	r1, r2
 8003c60:	683a      	ldr	r2, [r7, #0]
 8003c62:	6952      	ldr	r2, [r2, #20]
 8003c64:	4311      	orrs	r1, r2
 8003c66:	683a      	ldr	r2, [r7, #0]
 8003c68:	6992      	ldr	r2, [r2, #24]
 8003c6a:	4311      	orrs	r1, r2
 8003c6c:	683a      	ldr	r2, [r7, #0]
 8003c6e:	69d2      	ldr	r2, [r2, #28]
 8003c70:	4311      	orrs	r1, r2
 8003c72:	683a      	ldr	r2, [r7, #0]
 8003c74:	6a12      	ldr	r2, [r2, #32]
 8003c76:	430a      	orrs	r2, r1
 8003c78:	431a      	orrs	r2, r3
 8003c7a:	687b      	ldr	r3, [r7, #4]
 8003c7c:	601a      	str	r2, [r3, #0]
    /*---------------------------- SPIx CR2 Configuration ------------------------
     * Configure SPIx CR2 with parameters:
     * - DataWidth:          DS[3:0] bits
     * - NSS management:     SSOE bit
     */
    MODIFY_REG(SPIx->CR2,
 8003c7e:	687b      	ldr	r3, [r7, #4]
 8003c80:	685b      	ldr	r3, [r3, #4]
 8003c82:	f423 6370 	bic.w	r3, r3, #3840	; 0xf00
 8003c86:	f023 0304 	bic.w	r3, r3, #4
 8003c8a:	683a      	ldr	r2, [r7, #0]
 8003c8c:	6891      	ldr	r1, [r2, #8]
 8003c8e:	683a      	ldr	r2, [r7, #0]
 8003c90:	6952      	ldr	r2, [r2, #20]
 8003c92:	0c12      	lsrs	r2, r2, #16
 8003c94:	430a      	orrs	r2, r1
 8003c96:	431a      	orrs	r2, r3
 8003c98:	687b      	ldr	r3, [r7, #4]
 8003c9a:	605a      	str	r2, [r3, #4]
               SPI_CR2_DS | SPI_CR2_SSOE,
               SPI_InitStruct->DataWidth | (SPI_InitStruct->NSS >> 16U));

    /* Set Rx FIFO to Quarter (1 Byte) in case of 8 Bits mode. No DataPacking by default */
    if (SPI_InitStruct->DataWidth < LL_SPI_DATAWIDTH_9BIT)
 8003c9c:	683b      	ldr	r3, [r7, #0]
 8003c9e:	689b      	ldr	r3, [r3, #8]
 8003ca0:	f5b3 6f00 	cmp.w	r3, #2048	; 0x800
 8003ca4:	d204      	bcs.n	8003cb0 <LL_SPI_Init+0x8c>
    {
      LL_SPI_SetRxFIFOThreshold(SPIx, LL_SPI_RX_FIFO_TH_QUARTER);
 8003ca6:	f44f 5180 	mov.w	r1, #4096	; 0x1000
 8003caa:	6878      	ldr	r0, [r7, #4]
 8003cac:	f7ff ff97 	bl	8003bde <LL_SPI_SetRxFIFOThreshold>

    /*---------------------------- SPIx CRCPR Configuration ----------------------
     * Configure SPIx CRCPR with parameters:
     * - CRCPoly:            CRCPOLY[15:0] bits
     */
    if (SPI_InitStruct->CRCCalculation == LL_SPI_CRCCALCULATION_ENABLE)
 8003cb0:	683b      	ldr	r3, [r7, #0]
 8003cb2:	6a1b      	ldr	r3, [r3, #32]
 8003cb4:	f5b3 5f00 	cmp.w	r3, #8192	; 0x2000
 8003cb8:	d105      	bne.n	8003cc6 <LL_SPI_Init+0xa2>
    {
      assert_param(IS_LL_SPI_CRC_POLYNOMIAL(SPI_InitStruct->CRCPoly));
      LL_SPI_SetCRCPolynomial(SPIx, SPI_InitStruct->CRCPoly);
 8003cba:	683b      	ldr	r3, [r7, #0]
 8003cbc:	6a5b      	ldr	r3, [r3, #36]	; 0x24
 8003cbe:	4619      	mov	r1, r3
 8003cc0:	6878      	ldr	r0, [r7, #4]
 8003cc2:	f7ff ff9f 	bl	8003c04 <LL_SPI_SetCRCPolynomial>
    }
    status = SUCCESS;
 8003cc6:	2300      	movs	r3, #0
 8003cc8:	73fb      	strb	r3, [r7, #15]

#if defined (SPI_I2S_SUPPORT)
  /* Activate the SPI mode (Reset I2SMOD bit in I2SCFGR register) */
  CLEAR_BIT(SPIx->I2SCFGR, SPI_I2SCFGR_I2SMOD);
#endif /* SPI_I2S_SUPPORT */
  return status;
 8003cca:	7bfb      	ldrb	r3, [r7, #15]
}
 8003ccc:	4618      	mov	r0, r3
 8003cce:	3710      	adds	r7, #16
 8003cd0:	46bd      	mov	sp, r7
 8003cd2:	bd80      	pop	{r7, pc}

08003cd4 <LL_InitTick>:
  *         configuration by calling this function, for a delay use rather osDelay RTOS service.
  * @param  Ticks Number of ticks
  * @retval None
  */
__STATIC_INLINE void LL_InitTick(uint32_t HCLKFrequency, uint32_t Ticks)
{
 8003cd4:	b480      	push	{r7}
 8003cd6:	b083      	sub	sp, #12
 8003cd8:	af00      	add	r7, sp, #0
 8003cda:	6078      	str	r0, [r7, #4]
 8003cdc:	6039      	str	r1, [r7, #0]
  /* Configure the SysTick to have interrupt in 1ms time base */
  SysTick->LOAD  = (uint32_t)((HCLKFrequency / Ticks) - 1UL);  /* set reload register */
 8003cde:	4909      	ldr	r1, [pc, #36]	; (8003d04 <LL_InitTick+0x30>)
 8003ce0:	687a      	ldr	r2, [r7, #4]
 8003ce2:	683b      	ldr	r3, [r7, #0]
 8003ce4:	fbb2 f3f3 	udiv	r3, r2, r3
 8003ce8:	3b01      	subs	r3, #1
 8003cea:	604b      	str	r3, [r1, #4]
  SysTick->VAL   = 0UL;                                       /* Load the SysTick Counter Value */
 8003cec:	4b05      	ldr	r3, [pc, #20]	; (8003d04 <LL_InitTick+0x30>)
 8003cee:	2200      	movs	r2, #0
 8003cf0:	609a      	str	r2, [r3, #8]
  SysTick->CTRL  = SysTick_CTRL_CLKSOURCE_Msk |
 8003cf2:	4b04      	ldr	r3, [pc, #16]	; (8003d04 <LL_InitTick+0x30>)
 8003cf4:	2205      	movs	r2, #5
 8003cf6:	601a      	str	r2, [r3, #0]
                   SysTick_CTRL_ENABLE_Msk;                   /* Enable the Systick Timer */
}
 8003cf8:	bf00      	nop
 8003cfa:	370c      	adds	r7, #12
 8003cfc:	46bd      	mov	sp, r7
 8003cfe:	f85d 7b04 	ldr.w	r7, [sp], #4
 8003d02:	4770      	bx	lr
 8003d04:	e000e010 	.word	0xe000e010

08003d08 <LL_Init1msTick>:
  * @param  HCLKFrequency HCLK frequency in Hz
  * @note   HCLK frequency can be calculated thanks to RCC helper macro or function @ref LL_RCC_GetSystemClocksFreq
  * @retval None
  */
void LL_Init1msTick(uint32_t HCLKFrequency)
{
 8003d08:	b580      	push	{r7, lr}
 8003d0a:	b082      	sub	sp, #8
 8003d0c:	af00      	add	r7, sp, #0
 8003d0e:	6078      	str	r0, [r7, #4]
  /* Use frequency provided in argument */
  LL_InitTick(HCLKFrequency, 1000U);
 8003d10:	f44f 717a 	mov.w	r1, #1000	; 0x3e8
 8003d14:	6878      	ldr	r0, [r7, #4]
 8003d16:	f7ff ffdd 	bl	8003cd4 <LL_InitTick>
}
 8003d1a:	bf00      	nop
 8003d1c:	3708      	adds	r7, #8
 8003d1e:	46bd      	mov	sp, r7
 8003d20:	bd80      	pop	{r7, pc}
	...

08003d24 <LL_mDelay>:
  *         will configure Systick to 1ms
  * @param  Delay specifies the delay time length, in milliseconds.
  * @retval None
  */
void LL_mDelay(uint32_t Delay)
{
 8003d24:	b480      	push	{r7}
 8003d26:	b085      	sub	sp, #20
 8003d28:	af00      	add	r7, sp, #0
 8003d2a:	6078      	str	r0, [r7, #4]
  __IO uint32_t  tmp = SysTick->CTRL;  /* Clear the COUNTFLAG first */
 8003d2c:	4b0e      	ldr	r3, [pc, #56]	; (8003d68 <LL_mDelay+0x44>)
 8003d2e:	681b      	ldr	r3, [r3, #0]
 8003d30:	60fb      	str	r3, [r7, #12]
  /* Add this code to indicate that local variable is not used */
  ((void)tmp);
 8003d32:	68fb      	ldr	r3, [r7, #12]

  /* Add a period to guaranty minimum wait */
  if (Delay < LL_MAX_DELAY)
 8003d34:	687b      	ldr	r3, [r7, #4]
 8003d36:	f1b3 3fff 	cmp.w	r3, #4294967295
 8003d3a:	d00c      	beq.n	8003d56 <LL_mDelay+0x32>
  {
    Delay++;
 8003d3c:	687b      	ldr	r3, [r7, #4]
 8003d3e:	3301      	adds	r3, #1
 8003d40:	607b      	str	r3, [r7, #4]
  }

  while (Delay)
 8003d42:	e008      	b.n	8003d56 <LL_mDelay+0x32>
  {
    if ((SysTick->CTRL & SysTick_CTRL_COUNTFLAG_Msk) != 0U)
 8003d44:	4b08      	ldr	r3, [pc, #32]	; (8003d68 <LL_mDelay+0x44>)
 8003d46:	681b      	ldr	r3, [r3, #0]
 8003d48:	f403 3380 	and.w	r3, r3, #65536	; 0x10000
 8003d4c:	2b00      	cmp	r3, #0
 8003d4e:	d002      	beq.n	8003d56 <LL_mDelay+0x32>
    {
      Delay--;
 8003d50:	687b      	ldr	r3, [r7, #4]
 8003d52:	3b01      	subs	r3, #1
 8003d54:	607b      	str	r3, [r7, #4]
  while (Delay)
 8003d56:	687b      	ldr	r3, [r7, #4]
 8003d58:	2b00      	cmp	r3, #0
 8003d5a:	d1f3      	bne.n	8003d44 <LL_mDelay+0x20>
    }
  }
}
 8003d5c:	bf00      	nop
 8003d5e:	3714      	adds	r7, #20
 8003d60:	46bd      	mov	sp, r7
 8003d62:	f85d 7b04 	ldr.w	r7, [sp], #4
 8003d66:	4770      	bx	lr
 8003d68:	e000e010 	.word	0xe000e010

08003d6c <LL_SetSystemCoreClock>:
  * @note   Variable can be calculated also through SystemCoreClockUpdate function.
  * @param  HCLKFrequency HCLK frequency in Hz (can be calculated thanks to RCC helper macro)
  * @retval None
  */
void LL_SetSystemCoreClock(uint32_t HCLKFrequency)
{
 8003d6c:	b480      	push	{r7}
 8003d6e:	b083      	sub	sp, #12
 8003d70:	af00      	add	r7, sp, #0
 8003d72:	6078      	str	r0, [r7, #4]
  /* HCLK clock frequency */
  SystemCoreClock = HCLKFrequency;
 8003d74:	4a04      	ldr	r2, [pc, #16]	; (8003d88 <LL_SetSystemCoreClock+0x1c>)
 8003d76:	687b      	ldr	r3, [r7, #4]
 8003d78:	6013      	str	r3, [r2, #0]
}
 8003d7a:	bf00      	nop
 8003d7c:	370c      	adds	r7, #12
 8003d7e:	46bd      	mov	sp, r7
 8003d80:	f85d 7b04 	ldr.w	r7, [sp], #4
 8003d84:	4770      	bx	lr
 8003d86:	bf00      	nop
 8003d88:	200001fc 	.word	0x200001fc

08003d8c <HAL_Buzzer_State>:
	return;
}

//Functions used to modify the state of the Buzzer
void HAL_Buzzer_State(uint8_t state)
{
 8003d8c:	b580      	push	{r7, lr}
 8003d8e:	b082      	sub	sp, #8
 8003d90:	af00      	add	r7, sp, #0
 8003d92:	4603      	mov	r3, r0
 8003d94:	71fb      	strb	r3, [r7, #7]
	if(!state)
 8003d96:	79fb      	ldrb	r3, [r7, #7]
 8003d98:	2b00      	cmp	r3, #0
 8003d9a:	d102      	bne.n	8003da2 <HAL_Buzzer_State+0x16>
	{
		MX_PWM_TurnOff();
 8003d9c:	f7ff f8a8 	bl	8002ef0 <MX_PWM_TurnOff>
	}else
	{
		MX_PWM_TurnOn();
	}
	return;
 8003da0:	e002      	b.n	8003da8 <HAL_Buzzer_State+0x1c>
		MX_PWM_TurnOn();
 8003da2:	f7ff f89d 	bl	8002ee0 <MX_PWM_TurnOn>
	return;
 8003da6:	bf00      	nop
}
 8003da8:	3708      	adds	r7, #8
 8003daa:	46bd      	mov	sp, r7
 8003dac:	bd80      	pop	{r7, pc}

08003dae <HAL_JOYSTICK_CenterPressed>:

#include "HAL_JOYSTICK.h"
#include "gpio.h"

short HAL_JOYSTICK_CenterPressed(void)
{
 8003dae:	b580      	push	{r7, lr}
 8003db0:	af00      	add	r7, sp, #0
	return MX_Joystick_Center();
 8003db2:	f7fc fda7 	bl	8000904 <MX_Joystick_Center>
 8003db6:	4603      	mov	r3, r0
}
 8003db8:	4618      	mov	r0, r3
 8003dba:	bd80      	pop	{r7, pc}

08003dbc <HAL_JOYSTICK_UpPressed>:
short HAL_JOYSTICK_UpPressed(void)
{
 8003dbc:	b580      	push	{r7, lr}
 8003dbe:	af00      	add	r7, sp, #0
	return MX_Joystick_Up();
 8003dc0:	f7fc fd5a 	bl	8000878 <MX_Joystick_Up>
 8003dc4:	4603      	mov	r3, r0
}
 8003dc6:	4618      	mov	r0, r3
 8003dc8:	bd80      	pop	{r7, pc}

08003dca <HAL_JOYSTICK_DownPressed>:
short HAL_JOYSTICK_DownPressed(void)
{
 8003dca:	b580      	push	{r7, lr}
 8003dcc:	af00      	add	r7, sp, #0
	return MX_Joystick_Down();
 8003dce:	f7fc fd63 	bl	8000898 <MX_Joystick_Down>
 8003dd2:	4603      	mov	r3, r0
}
 8003dd4:	4618      	mov	r0, r3
 8003dd6:	bd80      	pop	{r7, pc}

08003dd8 <HAL_JOYSTICK_RightPressed>:
short HAL_JOYSTICK_RightPressed(void)
{
 8003dd8:	b580      	push	{r7, lr}
 8003dda:	af00      	add	r7, sp, #0
	return MX_Joystick_Right();
 8003ddc:	f7fc fd6e 	bl	80008bc <MX_Joystick_Right>
 8003de0:	4603      	mov	r3, r0
}
 8003de2:	4618      	mov	r0, r3
 8003de4:	bd80      	pop	{r7, pc}

08003de6 <HAL_JOYSTICK_LeftPressed>:
short HAL_JOYSTICK_LeftPressed(void)
{
 8003de6:	b580      	push	{r7, lr}
 8003de8:	af00      	add	r7, sp, #0
	return MX_Joystick_Left();
 8003dea:	f7fc fd79 	bl	80008e0 <MX_Joystick_Left>
 8003dee:	4603      	mov	r3, r0
}
 8003df0:	4618      	mov	r0, r3
 8003df2:	bd80      	pop	{r7, pc}

08003df4 <LL_GPIO_SetOutputPin>:
{
 8003df4:	b480      	push	{r7}
 8003df6:	b083      	sub	sp, #12
 8003df8:	af00      	add	r7, sp, #0
 8003dfa:	6078      	str	r0, [r7, #4]
 8003dfc:	6039      	str	r1, [r7, #0]
  WRITE_REG(GPIOx->BSRR, PinMask);
 8003dfe:	687b      	ldr	r3, [r7, #4]
 8003e00:	683a      	ldr	r2, [r7, #0]
 8003e02:	619a      	str	r2, [r3, #24]
}
 8003e04:	bf00      	nop
 8003e06:	370c      	adds	r7, #12
 8003e08:	46bd      	mov	sp, r7
 8003e0a:	f85d 7b04 	ldr.w	r7, [sp], #4
 8003e0e:	4770      	bx	lr

08003e10 <LL_GPIO_ResetOutputPin>:
{
 8003e10:	b480      	push	{r7}
 8003e12:	b083      	sub	sp, #12
 8003e14:	af00      	add	r7, sp, #0
 8003e16:	6078      	str	r0, [r7, #4]
 8003e18:	6039      	str	r1, [r7, #0]
  WRITE_REG(GPIOx->BRR, PinMask);
 8003e1a:	687b      	ldr	r3, [r7, #4]
 8003e1c:	683a      	ldr	r2, [r7, #0]
 8003e1e:	629a      	str	r2, [r3, #40]	; 0x28
}
 8003e20:	bf00      	nop
 8003e22:	370c      	adds	r7, #12
 8003e24:	46bd      	mov	sp, r7
 8003e26:	f85d 7b04 	ldr.w	r7, [sp], #4
 8003e2a:	4770      	bx	lr

08003e2c <HAL_LCD_Init>:




void HAL_LCD_Init(void)
{
 8003e2c:	b580      	push	{r7, lr}
 8003e2e:	af00      	add	r7, sp, #0
	/* This function initialize the LCD, this function must be call first
	before performing any operation in the LCD, the used GPIOs were initialized in the main */

	/*Before starting sending information to the LCD,
	it is necessary to initialize the SPI communication*/
	MX_SPI1_Init();
 8003e30:	f7fe ff5a 	bl	8002ce8 <MX_SPI1_Init>

	/*We need to make sure the LCD reaches 3.3V, therefore we make a delay of 1ms after reseting the LCD
	to start sending information*/
	HAL_LCD_Reset();
 8003e34:	f000 f822 	bl	8003e7c <HAL_LCD_Reset>
	LL_mDelay(1);
 8003e38:	2001      	movs	r0, #1
 8003e3a:	f7ff ff73 	bl	8003d24 <LL_mDelay>

	/*These commands are necessary to initialize the LCD, you can find
	them in the datasheet of the LCD NHD-C12832A1Z-FSW-FBW-3V3 or chip on glass ST7565R */

	/*We set the segment (columns) order to NORMAL*/
	HAL_LCD_Send_Command(CMD_ADC_SELECT(ADC_NORMAL));
 8003e3e:	20a0      	movs	r0, #160	; 0xa0
 8003e40:	f000 f841 	bl	8003ec6 <HAL_LCD_Send_Command>

	 /*TURNS OFF the display*/
	HAL_LCD_Send_Command(CMD_DISPLAY_ON_OFF(DISPLAY_OFF));
 8003e44:	20ae      	movs	r0, #174	; 0xae
 8003e46:	f000 f83e 	bl	8003ec6 <HAL_LCD_Send_Command>

	/*Selects COM output scan direction to normal direction*/
	HAL_LCD_Send_Command(CMD_COM_DIRECTION(COM_DIRECTION_REVERSE));
 8003e4a:	20c8      	movs	r0, #200	; 0xc8
 8003e4c:	f000 f83b 	bl	8003ec6 <HAL_LCD_Send_Command>

	/*Sets the LCD drive voltage bias ratio to 1/9*/
	HAL_LCD_Send_Command(CMD_BIAS_RATIO(CMD_BIAS_19));
 8003e50:	20a2      	movs	r0, #162	; 0xa2
 8003e52:	f000 f838 	bl	8003ec6 <HAL_LCD_Send_Command>

	/*Select internal power supply 111*/
	HAL_LCD_Send_Command(CMD_PWR_CONTROL(PWR_INTERNAL_SUPPLY));
 8003e56:	202f      	movs	r0, #47	; 0x2f
 8003e58:	f000 f835 	bl	8003ec6 <HAL_LCD_Send_Command>

	/*Select internal resistor ratio 001 */
	HAL_LCD_Send_Command(CMD_RES_RATIO(RES_RATIO_35));
 8003e5c:	2021      	movs	r0, #33	; 0x21
 8003e5e:	f000 f832 	bl	8003ec6 <HAL_LCD_Send_Command>

	/*Electronic volume mode  */
	HAL_LCD_Send_Command(CMD_ELEC_VOL_MODE);
 8003e62:	2081      	movs	r0, #129	; 0x81
 8003e64:	f000 f82f 	bl	8003ec6 <HAL_LCD_Send_Command>

	/*SET electronic volume (contrast), please NOTE this value is different from the datasheet,
	the datasheet specifies to configure a 3F, however, the contrast is to high and we would have
	problems to see the configured pixel in further LCD configurations*/
	HAL_LCD_Send_Command(CMD_ELEC_VOL_SET_LOW);
 8003e68:	201f      	movs	r0, #31
 8003e6a:	f000 f82c 	bl	8003ec6 <HAL_LCD_Send_Command>

	/* End of the initialization commands from datasheet, the following commands are just to prepare the
	 LCD before start implementing functions */

	/* With this command we want to set all the points in the LCD to work normal*/
	HAL_LCD_Send_Command(CMD_LCD_POINTS(LCD_POINTS_NORMAL));
 8003e6e:	20a4      	movs	r0, #164	; 0xa4
 8003e70:	f000 f829 	bl	8003ec6 <HAL_LCD_Send_Command>

	/*After initializating the LCD, it is necessary to clear all display because
	it could have information in RAM after it was turned off*/
	HAL_LCD_Clear();
 8003e74:	f000 f853 	bl	8003f1e <HAL_LCD_Clear>

	return;
 8003e78:	bf00      	nop
}
 8003e7a:	bd80      	pop	{r7, pc}

08003e7c <HAL_LCD_Reset>:
void HAL_LCD_Reset(void)
{
 8003e7c:	b580      	push	{r7, lr}
 8003e7e:	af00      	add	r7, sp, #0
	/*Pin PA6 is configured as RESET signal of LCD,
	when the reset signal is inactive, it is HIGH, if we want to reset the LCD
	, we reset the signal to LOW and release
	PA6   ------> LCD_RESET*/

	LL_GPIO_ResetOutputPin(LCD_RESET_GPIO_Port,LCD_RESET_Pin);
 8003e80:	2140      	movs	r1, #64	; 0x40
 8003e82:	f04f 4090 	mov.w	r0, #1207959552	; 0x48000000
 8003e86:	f7ff ffc3 	bl	8003e10 <LL_GPIO_ResetOutputPin>
	LL_mDelay(1);
 8003e8a:	2001      	movs	r0, #1
 8003e8c:	f7ff ff4a 	bl	8003d24 <LL_mDelay>
	LL_GPIO_SetOutputPin(LCD_RESET_GPIO_Port,LCD_RESET_Pin);
 8003e90:	2140      	movs	r1, #64	; 0x40
 8003e92:	f04f 4090 	mov.w	r0, #1207959552	; 0x48000000
 8003e96:	f7ff ffad 	bl	8003df4 <LL_GPIO_SetOutputPin>

	return;
 8003e9a:	bf00      	nop
}
 8003e9c:	bd80      	pop	{r7, pc}

08003e9e <HAL_LCD_A0_Data>:

void HAL_LCD_A0_Data(void)
{
 8003e9e:	b580      	push	{r7, lr}
 8003ea0:	af00      	add	r7, sp, #0
	/*Pin PA8 is configured as A0 signal of LCD,
	when the A0 is HIGH, the information is a DATA
	PA8   ------> LCD_A0*/
	LL_GPIO_SetOutputPin(LCD_A0_GPIO_Port,LCD_A0_Pin);
 8003ea2:	f44f 7180 	mov.w	r1, #256	; 0x100
 8003ea6:	f04f 4090 	mov.w	r0, #1207959552	; 0x48000000
 8003eaa:	f7ff ffa3 	bl	8003df4 <LL_GPIO_SetOutputPin>

	return;
 8003eae:	bf00      	nop
}
 8003eb0:	bd80      	pop	{r7, pc}

08003eb2 <HAL_LCD_A0_Command>:
void HAL_LCD_A0_Command(void)
{
 8003eb2:	b580      	push	{r7, lr}
 8003eb4:	af00      	add	r7, sp, #0
	/*Pin PA8 is configured as A0 signal of LCD,
	when the A0 is LOW, the information is a COMMAND
	PA8   ------> LCD_A0*/
	LL_GPIO_ResetOutputPin(LCD_A0_GPIO_Port,LCD_A0_Pin);
 8003eb6:	f44f 7180 	mov.w	r1, #256	; 0x100
 8003eba:	f04f 4090 	mov.w	r0, #1207959552	; 0x48000000
 8003ebe:	f7ff ffa7 	bl	8003e10 <LL_GPIO_ResetOutputPin>

	return;
 8003ec2:	bf00      	nop
}
 8003ec4:	bd80      	pop	{r7, pc}

08003ec6 <HAL_LCD_Send_Command>:

void HAL_LCD_Send_Command(uint8_t command)
{
 8003ec6:	b580      	push	{r7, lr}
 8003ec8:	b082      	sub	sp, #8
 8003eca:	af00      	add	r7, sp, #0
 8003ecc:	4603      	mov	r3, r0
 8003ece:	71fb      	strb	r3, [r7, #7]
	/*Function to send a command through SPI1, it configures automatically the A0=0
	therefore, it is a command. It enables CHIP SELECT signal and disables it after transmission is done */
	MX_SPI1_CS_Enable();
 8003ed0:	f7fe ff94 	bl	8002dfc <MX_SPI1_CS_Enable>
	HAL_LCD_A0_Command();
 8003ed4:	f7ff ffed 	bl	8003eb2 <HAL_LCD_A0_Command>
	MX_SPI1_Send(command);
 8003ed8:	79fb      	ldrb	r3, [r7, #7]
 8003eda:	4618      	mov	r0, r3
 8003edc:	f7fe ff70 	bl	8002dc0 <MX_SPI1_Send>
	LL_mDelay(1);
 8003ee0:	2001      	movs	r0, #1
 8003ee2:	f7ff ff1f 	bl	8003d24 <LL_mDelay>
	MX_SPI1_CS_Disable();
 8003ee6:	f7fe ff93 	bl	8002e10 <MX_SPI1_CS_Disable>

	return;
 8003eea:	bf00      	nop
}
 8003eec:	3708      	adds	r7, #8
 8003eee:	46bd      	mov	sp, r7
 8003ef0:	bd80      	pop	{r7, pc}

08003ef2 <HAL_LCD_Send_Data>:

void HAL_LCD_Send_Data(uint8_t data)
{
 8003ef2:	b580      	push	{r7, lr}
 8003ef4:	b082      	sub	sp, #8
 8003ef6:	af00      	add	r7, sp, #0
 8003ef8:	4603      	mov	r3, r0
 8003efa:	71fb      	strb	r3, [r7, #7]
	/*Function to send a data through SPI1, it configures automatically the A0=1
	therefore, it is a data. It enables CHIP SELECT signal and disables it after transmission is done */
	MX_SPI1_CS_Enable();
 8003efc:	f7fe ff7e 	bl	8002dfc <MX_SPI1_CS_Enable>
	HAL_LCD_A0_Data();
 8003f00:	f7ff ffcd 	bl	8003e9e <HAL_LCD_A0_Data>
	MX_SPI1_Send(data);
 8003f04:	79fb      	ldrb	r3, [r7, #7]
 8003f06:	4618      	mov	r0, r3
 8003f08:	f7fe ff5a 	bl	8002dc0 <MX_SPI1_Send>
	LL_mDelay(1);
 8003f0c:	2001      	movs	r0, #1
 8003f0e:	f7ff ff09 	bl	8003d24 <LL_mDelay>
	MX_SPI1_CS_Disable();
 8003f12:	f7fe ff7d 	bl	8002e10 <MX_SPI1_CS_Disable>

	return;
 8003f16:	bf00      	nop
}
 8003f18:	3708      	adds	r7, #8
 8003f1a:	46bd      	mov	sp, r7
 8003f1c:	bd80      	pop	{r7, pc}

08003f1e <HAL_LCD_Clear>:

void HAL_LCD_Clear(void)
{
 8003f1e:	b580      	push	{r7, lr}
 8003f20:	b082      	sub	sp, #8
 8003f22:	af00      	add	r7, sp, #0
	/*Function to clear ALL LCD, from page=0, column =0,
	to page = 3, column = 127, after clear, the cursor
	is set at page=0, column=0*/
	HAL_LCD_Send_Command(CMD_DISPLAY_ON_OFF(DISPLAY_OFF));
 8003f24:	20ae      	movs	r0, #174	; 0xae
 8003f26:	f7ff ffce 	bl	8003ec6 <HAL_LCD_Send_Command>
	for (uint8_t page=0 ; page <= MAX_PAGES ; page++)
 8003f2a:	2300      	movs	r3, #0
 8003f2c:	71fb      	strb	r3, [r7, #7]
 8003f2e:	e014      	b.n	8003f5a <HAL_LCD_Clear+0x3c>
	{

		HAL_LCD_Set_Position(0,page);
 8003f30:	79fb      	ldrb	r3, [r7, #7]
 8003f32:	4619      	mov	r1, r3
 8003f34:	2000      	movs	r0, #0
 8003f36:	f000 f81e 	bl	8003f76 <HAL_LCD_Set_Position>
		for(uint8_t column=0;column<= MAX_WIDHT ; column++)
 8003f3a:	2300      	movs	r3, #0
 8003f3c:	71bb      	strb	r3, [r7, #6]
 8003f3e:	e005      	b.n	8003f4c <HAL_LCD_Clear+0x2e>
		{
			HAL_LCD_Send_Data(ERASE_BYTE);
 8003f40:	2000      	movs	r0, #0
 8003f42:	f7ff ffd6 	bl	8003ef2 <HAL_LCD_Send_Data>
		for(uint8_t column=0;column<= MAX_WIDHT ; column++)
 8003f46:	79bb      	ldrb	r3, [r7, #6]
 8003f48:	3301      	adds	r3, #1
 8003f4a:	71bb      	strb	r3, [r7, #6]
 8003f4c:	f997 3006 	ldrsb.w	r3, [r7, #6]
 8003f50:	2b00      	cmp	r3, #0
 8003f52:	daf5      	bge.n	8003f40 <HAL_LCD_Clear+0x22>
	for (uint8_t page=0 ; page <= MAX_PAGES ; page++)
 8003f54:	79fb      	ldrb	r3, [r7, #7]
 8003f56:	3301      	adds	r3, #1
 8003f58:	71fb      	strb	r3, [r7, #7]
 8003f5a:	79fb      	ldrb	r3, [r7, #7]
 8003f5c:	2b03      	cmp	r3, #3
 8003f5e:	d9e7      	bls.n	8003f30 <HAL_LCD_Clear+0x12>
		}
	}
	HAL_LCD_Set_Position(0,0);
 8003f60:	2100      	movs	r1, #0
 8003f62:	2000      	movs	r0, #0
 8003f64:	f000 f807 	bl	8003f76 <HAL_LCD_Set_Position>
	HAL_LCD_Send_Command(CMD_DISPLAY_ON_OFF(DISPLAY_ON));
 8003f68:	20af      	movs	r0, #175	; 0xaf
 8003f6a:	f7ff ffac 	bl	8003ec6 <HAL_LCD_Send_Command>

	return;
 8003f6e:	bf00      	nop
}
 8003f70:	3708      	adds	r7, #8
 8003f72:	46bd      	mov	sp, r7
 8003f74:	bd80      	pop	{r7, pc}

08003f76 <HAL_LCD_Set_Position>:

void HAL_LCD_Set_Position(uint8_t column, uint8_t page)
{
 8003f76:	b580      	push	{r7, lr}
 8003f78:	b082      	sub	sp, #8
 8003f7a:	af00      	add	r7, sp, #0
 8003f7c:	4603      	mov	r3, r0
 8003f7e:	460a      	mov	r2, r1
 8003f80:	71fb      	strb	r3, [r7, #7]
 8003f82:	4613      	mov	r3, r2
 8003f84:	71bb      	strb	r3, [r7, #6]
	/*This function sets the position of the cursor, remember that
	MAX COLUMN = 127 and MAX PAGE = 3, the cursor is not explicit showed in the LCD,
	it is just a reference word to understand where the LCD starting is*/
	HAL_LCD_Send_Command(CMD_COLUMN_MSB(column));
 8003f86:	79fb      	ldrb	r3, [r7, #7]
 8003f88:	091b      	lsrs	r3, r3, #4
 8003f8a:	b2db      	uxtb	r3, r3
 8003f8c:	b25b      	sxtb	r3, r3
 8003f8e:	f043 0310 	orr.w	r3, r3, #16
 8003f92:	b25b      	sxtb	r3, r3
 8003f94:	b2db      	uxtb	r3, r3
 8003f96:	4618      	mov	r0, r3
 8003f98:	f7ff ff95 	bl	8003ec6 <HAL_LCD_Send_Command>
	HAL_LCD_Send_Command(CMD_COLUMN_LSB(column));
 8003f9c:	79fb      	ldrb	r3, [r7, #7]
 8003f9e:	f003 030f 	and.w	r3, r3, #15
 8003fa2:	b2db      	uxtb	r3, r3
 8003fa4:	4618      	mov	r0, r3
 8003fa6:	f7ff ff8e 	bl	8003ec6 <HAL_LCD_Send_Command>
	HAL_LCD_Send_Command(CMD_PAGE(page));
 8003faa:	f997 3006 	ldrsb.w	r3, [r7, #6]
 8003fae:	f003 030f 	and.w	r3, r3, #15
 8003fb2:	b25b      	sxtb	r3, r3
 8003fb4:	f063 034f 	orn	r3, r3, #79	; 0x4f
 8003fb8:	b25b      	sxtb	r3, r3
 8003fba:	b2db      	uxtb	r3, r3
 8003fbc:	4618      	mov	r0, r3
 8003fbe:	f7ff ff82 	bl	8003ec6 <HAL_LCD_Send_Command>

	return;
 8003fc2:	bf00      	nop
}
 8003fc4:	3708      	adds	r7, #8
 8003fc6:	46bd      	mov	sp, r7
 8003fc8:	bd80      	pop	{r7, pc}
	...

08003fcc <HAL_LCD_Write_ascii>:
void HAL_LCD_Write_ascii(uint8_t ascii, uint8_t column, uint8_t page)
{
 8003fcc:	b580      	push	{r7, lr}
 8003fce:	b084      	sub	sp, #16
 8003fd0:	af00      	add	r7, sp, #0
 8003fd2:	4603      	mov	r3, r0
 8003fd4:	71fb      	strb	r3, [r7, #7]
 8003fd6:	460b      	mov	r3, r1
 8003fd8:	71bb      	strb	r3, [r7, #6]
 8003fda:	4613      	mov	r3, r2
 8003fdc:	717b      	strb	r3, [r7, #5]
	/*This function requires a byte to print a single ascii character in the LCD,
	this function also requires the exact page and column to print the ascii character in the lcd
	remember that, MAX_WIDTH = 127, MAX_PAGE = 3 */
	HAL_LCD_Send_Command(CMD_DISPLAY_ON_OFF(DISPLAY_ON));
 8003fde:	20af      	movs	r0, #175	; 0xaf
 8003fe0:	f7ff ff71 	bl	8003ec6 <HAL_LCD_Send_Command>
	HAL_LCD_Set_Position(column,page);
 8003fe4:	797a      	ldrb	r2, [r7, #5]
 8003fe6:	79bb      	ldrb	r3, [r7, #6]
 8003fe8:	4611      	mov	r1, r2
 8003fea:	4618      	mov	r0, r3
 8003fec:	f7ff ffc3 	bl	8003f76 <HAL_LCD_Set_Position>

	for (uint8_t i=0; i<MAX_PIXEL_WIDTH ; i++)
 8003ff0:	2300      	movs	r3, #0
 8003ff2:	73fb      	strb	r3, [r7, #15]
 8003ff4:	e011      	b.n	800401a <HAL_LCD_Write_ascii+0x4e>
	{
		HAL_LCD_Send_Data(HAL_REVERSE_BYTE(font[(ascii*5)+i]));
 8003ff6:	79fa      	ldrb	r2, [r7, #7]
 8003ff8:	4613      	mov	r3, r2
 8003ffa:	009b      	lsls	r3, r3, #2
 8003ffc:	441a      	add	r2, r3
 8003ffe:	7bfb      	ldrb	r3, [r7, #15]
 8004000:	4413      	add	r3, r2
 8004002:	4a0b      	ldr	r2, [pc, #44]	; (8004030 <HAL_LCD_Write_ascii+0x64>)
 8004004:	5cd3      	ldrb	r3, [r2, r3]
 8004006:	4618      	mov	r0, r3
 8004008:	f000 f814 	bl	8004034 <HAL_REVERSE_BYTE>
 800400c:	4603      	mov	r3, r0
 800400e:	4618      	mov	r0, r3
 8004010:	f7ff ff6f 	bl	8003ef2 <HAL_LCD_Send_Data>
	for (uint8_t i=0; i<MAX_PIXEL_WIDTH ; i++)
 8004014:	7bfb      	ldrb	r3, [r7, #15]
 8004016:	3301      	adds	r3, #1
 8004018:	73fb      	strb	r3, [r7, #15]
 800401a:	7bfb      	ldrb	r3, [r7, #15]
 800401c:	2b04      	cmp	r3, #4
 800401e:	d9ea      	bls.n	8003ff6 <HAL_LCD_Write_ascii+0x2a>
	}

	HAL_LCD_Send_Data(LETTER_SEPARATOR_BYTE);
 8004020:	2000      	movs	r0, #0
 8004022:	f7ff ff66 	bl	8003ef2 <HAL_LCD_Send_Data>

	return;
 8004026:	bf00      	nop
}
 8004028:	3710      	adds	r7, #16
 800402a:	46bd      	mov	sp, r7
 800402c:	bd80      	pop	{r7, pc}
 800402e:	bf00      	nop
 8004030:	20000200 	.word	0x20000200

08004034 <HAL_REVERSE_BYTE>:
uint8_t HAL_REVERSE_BYTE(uint8_t byte)
{
 8004034:	b480      	push	{r7}
 8004036:	b083      	sub	sp, #12
 8004038:	af00      	add	r7, sp, #0
 800403a:	4603      	mov	r3, r0
 800403c:	71fb      	strb	r3, [r7, #7]
	/*This function reverse a single BYTE, why do we need this function?
	remember when we reversed the COMs in the HAL_LCD_Init() function, due this
	the line address of the pages was flip, this means that the MSB line of each page was in the bottom
	and the LSB was at the top. You need a function to reverse the data byte */
	byte = (byte & 0xF0) >> 4 | (byte & 0x0F) << 4;
 800403e:	79fb      	ldrb	r3, [r7, #7]
 8004040:	091b      	lsrs	r3, r3, #4
 8004042:	b2db      	uxtb	r3, r3
 8004044:	b25a      	sxtb	r2, r3
 8004046:	79fb      	ldrb	r3, [r7, #7]
 8004048:	011b      	lsls	r3, r3, #4
 800404a:	b25b      	sxtb	r3, r3
 800404c:	4313      	orrs	r3, r2
 800404e:	b25b      	sxtb	r3, r3
 8004050:	71fb      	strb	r3, [r7, #7]
	byte = (byte & 0xCC) >> 2 | (byte & 0x33) << 2;
 8004052:	79fb      	ldrb	r3, [r7, #7]
 8004054:	109b      	asrs	r3, r3, #2
 8004056:	b25b      	sxtb	r3, r3
 8004058:	f003 0333 	and.w	r3, r3, #51	; 0x33
 800405c:	b25a      	sxtb	r2, r3
 800405e:	79fb      	ldrb	r3, [r7, #7]
 8004060:	009b      	lsls	r3, r3, #2
 8004062:	b25b      	sxtb	r3, r3
 8004064:	f023 0333 	bic.w	r3, r3, #51	; 0x33
 8004068:	b25b      	sxtb	r3, r3
 800406a:	4313      	orrs	r3, r2
 800406c:	b25b      	sxtb	r3, r3
 800406e:	71fb      	strb	r3, [r7, #7]
	byte = (byte & 0xAA) >> 1 | (byte & 0x55) << 1;
 8004070:	79fb      	ldrb	r3, [r7, #7]
 8004072:	105b      	asrs	r3, r3, #1
 8004074:	b25b      	sxtb	r3, r3
 8004076:	f003 0355 	and.w	r3, r3, #85	; 0x55
 800407a:	b25a      	sxtb	r2, r3
 800407c:	79fb      	ldrb	r3, [r7, #7]
 800407e:	005b      	lsls	r3, r3, #1
 8004080:	b25b      	sxtb	r3, r3
 8004082:	f023 0355 	bic.w	r3, r3, #85	; 0x55
 8004086:	b25b      	sxtb	r3, r3
 8004088:	4313      	orrs	r3, r2
 800408a:	b25b      	sxtb	r3, r3
 800408c:	71fb      	strb	r3, [r7, #7]

	return byte;
 800408e:	79fb      	ldrb	r3, [r7, #7]
}
 8004090:	4618      	mov	r0, r3
 8004092:	370c      	adds	r7, #12
 8004094:	46bd      	mov	sp, r7
 8004096:	f85d 7b04 	ldr.w	r7, [sp], #4
 800409a:	4770      	bx	lr

0800409c <HAL_LCD_Write_AsciiString>:

void HAL_LCD_Write_AsciiString(uint8_t word[21], uint8_t column, uint8_t page)
{
 800409c:	b580      	push	{r7, lr}
 800409e:	b084      	sub	sp, #16
 80040a0:	af00      	add	r7, sp, #0
 80040a2:	6078      	str	r0, [r7, #4]
 80040a4:	460b      	mov	r3, r1
 80040a6:	70fb      	strb	r3, [r7, #3]
 80040a8:	4613      	mov	r3, r2
 80040aa:	70bb      	strb	r3, [r7, #2]
	/*This function writes a ascii string on the display, it could be a string like
	"Hello", "123", "Hello123" or "Hello 123", this function considers also spaces*/
	HAL_LCD_Set_Position(column,page);
 80040ac:	78ba      	ldrb	r2, [r7, #2]
 80040ae:	78fb      	ldrb	r3, [r7, #3]
 80040b0:	4611      	mov	r1, r2
 80040b2:	4618      	mov	r0, r3
 80040b4:	f7ff ff5f 	bl	8003f76 <HAL_LCD_Set_Position>
	for (uint8_t i=0;i<21;i++)
 80040b8:	2300      	movs	r3, #0
 80040ba:	73fb      	strb	r3, [r7, #15]
 80040bc:	e014      	b.n	80040e8 <HAL_LCD_Write_AsciiString+0x4c>
	{
		if (word[i]=='\0')
 80040be:	7bfb      	ldrb	r3, [r7, #15]
 80040c0:	687a      	ldr	r2, [r7, #4]
 80040c2:	4413      	add	r3, r2
 80040c4:	781b      	ldrb	r3, [r3, #0]
 80040c6:	2b00      	cmp	r3, #0
 80040c8:	d013      	beq.n	80040f2 <HAL_LCD_Write_AsciiString+0x56>
		{
			return;
		}
		HAL_LCD_Write_ascii(word[i],column,page);
 80040ca:	7bfb      	ldrb	r3, [r7, #15]
 80040cc:	687a      	ldr	r2, [r7, #4]
 80040ce:	4413      	add	r3, r2
 80040d0:	781b      	ldrb	r3, [r3, #0]
 80040d2:	78ba      	ldrb	r2, [r7, #2]
 80040d4:	78f9      	ldrb	r1, [r7, #3]
 80040d6:	4618      	mov	r0, r3
 80040d8:	f7ff ff78 	bl	8003fcc <HAL_LCD_Write_ascii>
		column+=6;
 80040dc:	78fb      	ldrb	r3, [r7, #3]
 80040de:	3306      	adds	r3, #6
 80040e0:	70fb      	strb	r3, [r7, #3]
	for (uint8_t i=0;i<21;i++)
 80040e2:	7bfb      	ldrb	r3, [r7, #15]
 80040e4:	3301      	adds	r3, #1
 80040e6:	73fb      	strb	r3, [r7, #15]
 80040e8:	7bfb      	ldrb	r3, [r7, #15]
 80040ea:	2b14      	cmp	r3, #20
 80040ec:	d9e7      	bls.n	80040be <HAL_LCD_Write_AsciiString+0x22>

	}

	return;
 80040ee:	bf00      	nop
 80040f0:	e000      	b.n	80040f4 <HAL_LCD_Write_AsciiString+0x58>
			return;
 80040f2:	bf00      	nop


}
 80040f4:	3710      	adds	r7, #16
 80040f6:	46bd      	mov	sp, r7
 80040f8:	bd80      	pop	{r7, pc}
	...

080040fc <HAL_LCD_Write_Number>:

void HAL_LCD_Write_Number(uint8_t *number, uint8_t column, uint8_t page)
{
 80040fc:	b580      	push	{r7, lr}
 80040fe:	b084      	sub	sp, #16
 8004100:	af00      	add	r7, sp, #0
 8004102:	6078      	str	r0, [r7, #4]
 8004104:	460b      	mov	r3, r1
 8004106:	70fb      	strb	r3, [r7, #3]
 8004108:	4613      	mov	r3, r2
 800410a:	70bb      	strb	r3, [r7, #2]
	/*This function writes a number of 2 digits, it also needs the column and page where you want the
	number, if the number is less than two digits, it will print 0#. Ex. If you want to print 9, the LCD
	will print 09*/
	uint8_t AsciiFirstDigit=*number/10+ADD_VALUE_TO_ASCII;
 800410c:	687b      	ldr	r3, [r7, #4]
 800410e:	781b      	ldrb	r3, [r3, #0]
 8004110:	4a12      	ldr	r2, [pc, #72]	; (800415c <HAL_LCD_Write_Number+0x60>)
 8004112:	fba2 2303 	umull	r2, r3, r2, r3
 8004116:	08db      	lsrs	r3, r3, #3
 8004118:	b2db      	uxtb	r3, r3
 800411a:	3330      	adds	r3, #48	; 0x30
 800411c:	73fb      	strb	r3, [r7, #15]
	uint8_t AsciiSecondDigit = *number%10+ADD_VALUE_TO_ASCII;
 800411e:	687b      	ldr	r3, [r7, #4]
 8004120:	781a      	ldrb	r2, [r3, #0]
 8004122:	4b0e      	ldr	r3, [pc, #56]	; (800415c <HAL_LCD_Write_Number+0x60>)
 8004124:	fba3 1302 	umull	r1, r3, r3, r2
 8004128:	08d9      	lsrs	r1, r3, #3
 800412a:	460b      	mov	r3, r1
 800412c:	009b      	lsls	r3, r3, #2
 800412e:	440b      	add	r3, r1
 8004130:	005b      	lsls	r3, r3, #1
 8004132:	1ad3      	subs	r3, r2, r3
 8004134:	b2db      	uxtb	r3, r3
 8004136:	3330      	adds	r3, #48	; 0x30
 8004138:	73bb      	strb	r3, [r7, #14]
	uint8_t numberAscii [3]= {AsciiFirstDigit, AsciiSecondDigit,'\0'};
 800413a:	7bfb      	ldrb	r3, [r7, #15]
 800413c:	723b      	strb	r3, [r7, #8]
 800413e:	7bbb      	ldrb	r3, [r7, #14]
 8004140:	727b      	strb	r3, [r7, #9]
 8004142:	2300      	movs	r3, #0
 8004144:	72bb      	strb	r3, [r7, #10]
	HAL_LCD_Write_AsciiString(numberAscii,column,page);
 8004146:	78ba      	ldrb	r2, [r7, #2]
 8004148:	78f9      	ldrb	r1, [r7, #3]
 800414a:	f107 0308 	add.w	r3, r7, #8
 800414e:	4618      	mov	r0, r3
 8004150:	f7ff ffa4 	bl	800409c <HAL_LCD_Write_AsciiString>

	return;
 8004154:	bf00      	nop
}
 8004156:	3710      	adds	r7, #16
 8004158:	46bd      	mov	sp, r7
 800415a:	bd80      	pop	{r7, pc}
 800415c:	cccccccd 	.word	0xcccccccd

08004160 <HAL_POT_Init>:
 */
#include "HAL_POT.h"

/*This function initialize the ADC*/
void HAL_POT_Init(void)
{
 8004160:	b580      	push	{r7, lr}
 8004162:	af00      	add	r7, sp, #0
	MX_ADC1_Init();
 8004164:	f7fc f9a0 	bl	80004a8 <MX_ADC1_Init>
	MX_ADC1_Calibration();
 8004168:	f7fc fa4a 	bl	8000600 <MX_ADC1_Calibration>
	MX_ADC1_Enable();
 800416c:	f7fc fa38 	bl	80005e0 <MX_ADC1_Enable>
}
 8004170:	bf00      	nop
 8004172:	bd80      	pop	{r7, pc}

08004174 <HAL_POT_GetBinaryValue>:

/*This function returns the ADC value i an 8 bits format*/
uint16_t HAL_POT_GetBinaryValue (uint32_t Channel)
{
 8004174:	b580      	push	{r7, lr}
 8004176:	b084      	sub	sp, #16
 8004178:	af00      	add	r7, sp, #0
 800417a:	6078      	str	r0, [r7, #4]
	uint16_t POT_value = 0;
 800417c:	2300      	movs	r3, #0
 800417e:	81fb      	strh	r3, [r7, #14]
	MX_ADC1_SetChannel(Channel);
 8004180:	6878      	ldr	r0, [r7, #4]
 8004182:	f7fc fa4f 	bl	8000624 <MX_ADC1_SetChannel>
	MX_ADC1_StartConversion();
 8004186:	f7fc fa71 	bl	800066c <MX_ADC1_StartConversion>
	POT_value = MX_ADC1_GetValue();
 800418a:	f7fc fa83 	bl	8000694 <MX_ADC1_GetValue>
 800418e:	4603      	mov	r3, r0
 8004190:	81fb      	strh	r3, [r7, #14]
	LL_mDelay(10);
 8004192:	200a      	movs	r0, #10
 8004194:	f7ff fdc6 	bl	8003d24 <LL_mDelay>

	return POT_value;
 8004198:	89fb      	ldrh	r3, [r7, #14]
}
 800419a:	4618      	mov	r0, r3
 800419c:	3710      	adds	r7, #16
 800419e:	46bd      	mov	sp, r7
 80041a0:	bd80      	pop	{r7, pc}
	...

080041a4 <HAL_POT_Percentage>:
	return POT_VoltageValue;
}

/*This function returns the value of the potentiometer as a percentage*/
uint8_t HAL_POT_Percentage (uint32_t Channel)
{
 80041a4:	b580      	push	{r7, lr}
 80041a6:	b084      	sub	sp, #16
 80041a8:	af00      	add	r7, sp, #0
 80041aa:	6078      	str	r0, [r7, #4]
	uint8_t POT_Percent = 0;
 80041ac:	2300      	movs	r3, #0
 80041ae:	73fb      	strb	r3, [r7, #15]
	uint16_t measure = 0;
 80041b0:	2300      	movs	r3, #0
 80041b2:	81bb      	strh	r3, [r7, #12]

	measure = HAL_POT_GetBinaryValue(Channel);
 80041b4:	6878      	ldr	r0, [r7, #4]
 80041b6:	f7ff ffdd 	bl	8004174 <HAL_POT_GetBinaryValue>
 80041ba:	4603      	mov	r3, r0
 80041bc:	81bb      	strh	r3, [r7, #12]
	POT_Percent = (measure * 100)/POT_MAX_Count;
 80041be:	89bb      	ldrh	r3, [r7, #12]
 80041c0:	2264      	movs	r2, #100	; 0x64
 80041c2:	fb02 f303 	mul.w	r3, r2, r3
 80041c6:	4a06      	ldr	r2, [pc, #24]	; (80041e0 <HAL_POT_Percentage+0x3c>)
 80041c8:	fb82 1203 	smull	r1, r2, r2, r3
 80041cc:	441a      	add	r2, r3
 80041ce:	11d2      	asrs	r2, r2, #7
 80041d0:	17db      	asrs	r3, r3, #31
 80041d2:	1ad3      	subs	r3, r2, r3
 80041d4:	73fb      	strb	r3, [r7, #15]

	return POT_Percent;
 80041d6:	7bfb      	ldrb	r3, [r7, #15]
}
 80041d8:	4618      	mov	r0, r3
 80041da:	3710      	adds	r7, #16
 80041dc:	46bd      	mov	sp, r7
 80041de:	bd80      	pop	{r7, pc}
 80041e0:	80808081 	.word	0x80808081

080041e4 <rgb_rojo>:
#include "HAL_RGB.h"
#include "gpio.h"

void rgb_rojo(){
 80041e4:	b580      	push	{r7, lr}
 80041e6:	af00      	add	r7, sp, #0
	MX_RGB_Red(0);
 80041e8:	2000      	movs	r0, #0
 80041ea:	f7fc fb9d 	bl	8000928 <MX_RGB_Red>
	MX_RGB_Green(1);
 80041ee:	2001      	movs	r0, #1
 80041f0:	f7fc fbb6 	bl	8000960 <MX_RGB_Green>
	MX_RGB_Blue(1);
 80041f4:	2001      	movs	r0, #1
 80041f6:	f7fc fbcf 	bl	8000998 <MX_RGB_Blue>
}
 80041fa:	bf00      	nop
 80041fc:	bd80      	pop	{r7, pc}

080041fe <rgb_verde>:
void rgb_verde(){
 80041fe:	b580      	push	{r7, lr}
 8004200:	af00      	add	r7, sp, #0
	MX_RGB_Red(1);
 8004202:	2001      	movs	r0, #1
 8004204:	f7fc fb90 	bl	8000928 <MX_RGB_Red>
	MX_RGB_Green(0);
 8004208:	2000      	movs	r0, #0
 800420a:	f7fc fba9 	bl	8000960 <MX_RGB_Green>
	MX_RGB_Blue(1);
 800420e:	2001      	movs	r0, #1
 8004210:	f7fc fbc2 	bl	8000998 <MX_RGB_Blue>
}
 8004214:	bf00      	nop
 8004216:	bd80      	pop	{r7, pc}

08004218 <rgb_azul>:
void rgb_azul(){
 8004218:	b580      	push	{r7, lr}
 800421a:	af00      	add	r7, sp, #0
	MX_RGB_Red(1);
 800421c:	2001      	movs	r0, #1
 800421e:	f7fc fb83 	bl	8000928 <MX_RGB_Red>
	MX_RGB_Green(1);
 8004222:	2001      	movs	r0, #1
 8004224:	f7fc fb9c 	bl	8000960 <MX_RGB_Green>
	MX_RGB_Blue(0);
 8004228:	2000      	movs	r0, #0
 800422a:	f7fc fbb5 	bl	8000998 <MX_RGB_Blue>
}
 800422e:	bf00      	nop
 8004230:	bd80      	pop	{r7, pc}

08004232 <rgb_amarillo>:
void rgb_amarillo(){
 8004232:	b580      	push	{r7, lr}
 8004234:	af00      	add	r7, sp, #0
	MX_RGB_Red(0);
 8004236:	2000      	movs	r0, #0
 8004238:	f7fc fb76 	bl	8000928 <MX_RGB_Red>
	MX_RGB_Green(0);
 800423c:	2000      	movs	r0, #0
 800423e:	f7fc fb8f 	bl	8000960 <MX_RGB_Green>
	MX_RGB_Blue(1);
 8004242:	2001      	movs	r0, #1
 8004244:	f7fc fba8 	bl	8000998 <MX_RGB_Blue>
}
 8004248:	bf00      	nop
 800424a:	bd80      	pop	{r7, pc}

0800424c <rgb_celeste>:
void rgb_celeste(){
 800424c:	b580      	push	{r7, lr}
 800424e:	af00      	add	r7, sp, #0
	MX_RGB_Red(1);
 8004250:	2001      	movs	r0, #1
 8004252:	f7fc fb69 	bl	8000928 <MX_RGB_Red>
	MX_RGB_Green(0);
 8004256:	2000      	movs	r0, #0
 8004258:	f7fc fb82 	bl	8000960 <MX_RGB_Green>
	MX_RGB_Blue(0);
 800425c:	2000      	movs	r0, #0
 800425e:	f7fc fb9b 	bl	8000998 <MX_RGB_Blue>
}
 8004262:	bf00      	nop
 8004264:	bd80      	pop	{r7, pc}

08004266 <rgb_morado>:
void rgb_morado(){
 8004266:	b580      	push	{r7, lr}
 8004268:	af00      	add	r7, sp, #0
	MX_RGB_Red(0);
 800426a:	2000      	movs	r0, #0
 800426c:	f7fc fb5c 	bl	8000928 <MX_RGB_Red>
	MX_RGB_Green(1);
 8004270:	2001      	movs	r0, #1
 8004272:	f7fc fb75 	bl	8000960 <MX_RGB_Green>
	MX_RGB_Blue(0);
 8004276:	2000      	movs	r0, #0
 8004278:	f7fc fb8e 	bl	8000998 <MX_RGB_Blue>
}
 800427c:	bf00      	nop
 800427e:	bd80      	pop	{r7, pc}

08004280 <rgb_blanco>:
void rgb_blanco(){
 8004280:	b580      	push	{r7, lr}
 8004282:	af00      	add	r7, sp, #0
	MX_RGB_Red(0);
 8004284:	2000      	movs	r0, #0
 8004286:	f7fc fb4f 	bl	8000928 <MX_RGB_Red>
	MX_RGB_Green(0);
 800428a:	2000      	movs	r0, #0
 800428c:	f7fc fb68 	bl	8000960 <MX_RGB_Green>
	MX_RGB_Blue(0);
 8004290:	2000      	movs	r0, #0
 8004292:	f7fc fb81 	bl	8000998 <MX_RGB_Blue>
}
 8004296:	bf00      	nop
 8004298:	bd80      	pop	{r7, pc}

0800429a <rgb_apagado>:
void rgb_apagado(){
 800429a:	b580      	push	{r7, lr}
 800429c:	af00      	add	r7, sp, #0
	MX_RGB_Red(1);
 800429e:	2001      	movs	r0, #1
 80042a0:	f7fc fb42 	bl	8000928 <MX_RGB_Red>
	MX_RGB_Green(1);
 80042a4:	2001      	movs	r0, #1
 80042a6:	f7fc fb5b 	bl	8000960 <MX_RGB_Green>
	MX_RGB_Blue(1);
 80042aa:	2001      	movs	r0, #1
 80042ac:	f7fc fb74 	bl	8000998 <MX_RGB_Blue>
}
 80042b0:	bf00      	nop
 80042b2:	bd80      	pop	{r7, pc}

080042b4 <HAL_RTC_Init>:
 */
#include "HAL_RTC.h"

/*This function initialize the RTC module*/
void HAL_RTC_Init(void)
{
 80042b4:	b580      	push	{r7, lr}
 80042b6:	af00      	add	r7, sp, #0
	MX_RTC_Init();
 80042b8:	f7fe fb1c 	bl	80028f4 <MX_RTC_Init>
	return;
 80042bc:	bf00      	nop
}
 80042be:	bd80      	pop	{r7, pc}

080042c0 <HAL_Get_ActualTime>:

/*This function returns the actual time, the pointers should be put in the argument as following: hour, minutes, seconds*/
void HAL_Get_ActualTime(uint8_t *hh, uint8_t *mm, uint8_t *ss)
{
 80042c0:	b580      	push	{r7, lr}
 80042c2:	b084      	sub	sp, #16
 80042c4:	af00      	add	r7, sp, #0
 80042c6:	60f8      	str	r0, [r7, #12]
 80042c8:	60b9      	str	r1, [r7, #8]
 80042ca:	607a      	str	r2, [r7, #4]
	MX_RTC_GetTime(hh, mm, ss);
 80042cc:	687a      	ldr	r2, [r7, #4]
 80042ce:	68b9      	ldr	r1, [r7, #8]
 80042d0:	68f8      	ldr	r0, [r7, #12]
 80042d2:	f7fe fb8f 	bl	80029f4 <MX_RTC_GetTime>
	LL_mDelay(50);
 80042d6:	2032      	movs	r0, #50	; 0x32
 80042d8:	f7ff fd24 	bl	8003d24 <LL_mDelay>
	return;
 80042dc:	bf00      	nop
}
 80042de:	3710      	adds	r7, #16
 80042e0:	46bd      	mov	sp, r7
 80042e2:	bd80      	pop	{r7, pc}

080042e4 <HAL_Set_ActualTime>:
}

/*This function allow to configure a new actual time, the value of the new time should be put in the argument as
 * following: hour, minutes, seconds*/
void HAL_Set_ActualTime(uint8_t hh, uint8_t mm, uint8_t ss)
{
 80042e4:	b580      	push	{r7, lr}
 80042e6:	b082      	sub	sp, #8
 80042e8:	af00      	add	r7, sp, #0
 80042ea:	4603      	mov	r3, r0
 80042ec:	71fb      	strb	r3, [r7, #7]
 80042ee:	460b      	mov	r3, r1
 80042f0:	71bb      	strb	r3, [r7, #6]
 80042f2:	4613      	mov	r3, r2
 80042f4:	717b      	strb	r3, [r7, #5]
	MX_RTC_SetTime(hh, mm, ss);
 80042f6:	797a      	ldrb	r2, [r7, #5]
 80042f8:	79b9      	ldrb	r1, [r7, #6]
 80042fa:	79fb      	ldrb	r3, [r7, #7]
 80042fc:	4618      	mov	r0, r3
 80042fe:	f7fe fbd7 	bl	8002ab0 <MX_RTC_SetTime>
	LL_mDelay(50);
 8004302:	2032      	movs	r0, #50	; 0x32
 8004304:	f7ff fd0e 	bl	8003d24 <LL_mDelay>
	return;
 8004308:	bf00      	nop
}
 800430a:	3708      	adds	r7, #8
 800430c:	46bd      	mov	sp, r7
 800430e:	bd80      	pop	{r7, pc}

08004310 <HAL_TEMPSen_Init>:
 *      Author: carlo
 */
#include "HAL_TEMPSen.h"

void HAL_TEMPSen_Init()
{
 8004310:	b580      	push	{r7, lr}
 8004312:	af00      	add	r7, sp, #0
	MX_I2C1_Init();
 8004314:	f7fc fcaa 	bl	8000c6c <MX_I2C1_Init>
	return;
 8004318:	bf00      	nop
}
 800431a:	bd80      	pop	{r7, pc}

0800431c <HAL_TEMPSen_ReadTemperature>:

uint8_t HAL_TEMPSen_ReadTemperature(void)
{
 800431c:	b580      	push	{r7, lr}
 800431e:	b086      	sub	sp, #24
 8004320:	af00      	add	r7, sp, #0
	  uint16_t measure = 0x00;
 8004322:	2300      	movs	r3, #0
 8004324:	82fb      	strh	r3, [r7, #22]
	  float tempConv = 0.0;
 8004326:	f04f 0300 	mov.w	r3, #0
 800432a:	60fb      	str	r3, [r7, #12]
	  uint8_t data[2];
	  uint8_t temp = 0;
 800432c:	2300      	movs	r3, #0
 800432e:	72fb      	strb	r3, [r7, #11]
	  data [0]= LM75B_CMD_Temp;
 8004330:	2300      	movs	r3, #0
 8004332:	723b      	strb	r3, [r7, #8]
	  MX_I2C1_Write(1, data, TEMP_Sens_ADDR);
 8004334:	f107 0308 	add.w	r3, r7, #8
 8004338:	2290      	movs	r2, #144	; 0x90
 800433a:	4619      	mov	r1, r3
 800433c:	2001      	movs	r0, #1
 800433e:	f7fc fd5b 	bl	8000df8 <MX_I2C1_Write>
	  MX_I2C_Read(2, data, TEMP_Sens_ADDR);
 8004342:	f107 0308 	add.w	r3, r7, #8
 8004346:	2290      	movs	r2, #144	; 0x90
 8004348:	4619      	mov	r1, r3
 800434a:	2002      	movs	r0, #2
 800434c:	f7fc fd20 	bl	8000d90 <MX_I2C_Read>

	  for (int i=0; i<2; i++)
 8004350:	2300      	movs	r3, #0
 8004352:	613b      	str	r3, [r7, #16]
 8004354:	e010      	b.n	8004378 <HAL_TEMPSen_ReadTemperature+0x5c>
	  {
		  if(i==0)
 8004356:	693b      	ldr	r3, [r7, #16]
 8004358:	2b00      	cmp	r3, #0
 800435a:	d105      	bne.n	8004368 <HAL_TEMPSen_ReadTemperature+0x4c>
		  {
			  measure = data[0];
 800435c:	7a3b      	ldrb	r3, [r7, #8]
 800435e:	82fb      	strh	r3, [r7, #22]
			  measure = measure << 8;
 8004360:	8afb      	ldrh	r3, [r7, #22]
 8004362:	021b      	lsls	r3, r3, #8
 8004364:	82fb      	strh	r3, [r7, #22]
 8004366:	e004      	b.n	8004372 <HAL_TEMPSen_ReadTemperature+0x56>
		  }else
		  {
			  measure = measure | (data[1]);
 8004368:	7a7b      	ldrb	r3, [r7, #9]
 800436a:	b29a      	uxth	r2, r3
 800436c:	8afb      	ldrh	r3, [r7, #22]
 800436e:	4313      	orrs	r3, r2
 8004370:	82fb      	strh	r3, [r7, #22]
	  for (int i=0; i<2; i++)
 8004372:	693b      	ldr	r3, [r7, #16]
 8004374:	3301      	adds	r3, #1
 8004376:	613b      	str	r3, [r7, #16]
 8004378:	693b      	ldr	r3, [r7, #16]
 800437a:	2b01      	cmp	r3, #1
 800437c:	ddeb      	ble.n	8004356 <HAL_TEMPSen_ReadTemperature+0x3a>
		  }
	  }
	  measure = measure >> 5;
 800437e:	8afb      	ldrh	r3, [r7, #22]
 8004380:	095b      	lsrs	r3, r3, #5
 8004382:	82fb      	strh	r3, [r7, #22]
	  tempConv = (float)(measure)*0.125;
 8004384:	8afb      	ldrh	r3, [r7, #22]
 8004386:	ee07 3a90 	vmov	s15, r3
 800438a:	eef8 7a67 	vcvt.f32.u32	s15, s15
 800438e:	eeb4 7a00 	vmov.f32	s14, #64	; 0x3e000000  0.125
 8004392:	ee67 7a87 	vmul.f32	s15, s15, s14
 8004396:	edc7 7a03 	vstr	s15, [r7, #12]
	  temp = (uint8_t)tempConv;
 800439a:	edd7 7a03 	vldr	s15, [r7, #12]
 800439e:	eefc 7ae7 	vcvt.u32.f32	s15, s15
 80043a2:	edc7 7a01 	vstr	s15, [r7, #4]
 80043a6:	793b      	ldrb	r3, [r7, #4]
 80043a8:	72fb      	strb	r3, [r7, #11]

	  return temp;
 80043aa:	7afb      	ldrb	r3, [r7, #11]
}
 80043ac:	4618      	mov	r0, r3
 80043ae:	3718      	adds	r7, #24
 80043b0:	46bd      	mov	sp, r7
 80043b2:	bd80      	pop	{r7, pc}

080043b4 <Reset_Handler>:

    .section	.text.Reset_Handler
	.weak	Reset_Handler
	.type	Reset_Handler, %function
Reset_Handler:
  ldr   sp, =_estack    /* Atollic update: set stack pointer */
 80043b4:	f8df d034 	ldr.w	sp, [pc, #52]	; 80043ec <LoopForever+0x2>

/* Copy the data segment initializers from flash to SRAM */
  ldr r0, =_sdata
 80043b8:	480d      	ldr	r0, [pc, #52]	; (80043f0 <LoopForever+0x6>)
  ldr r1, =_edata
 80043ba:	490e      	ldr	r1, [pc, #56]	; (80043f4 <LoopForever+0xa>)
  ldr r2, =_sidata
 80043bc:	4a0e      	ldr	r2, [pc, #56]	; (80043f8 <LoopForever+0xe>)
  movs r3, #0
 80043be:	2300      	movs	r3, #0
  b LoopCopyDataInit
 80043c0:	e002      	b.n	80043c8 <LoopCopyDataInit>

080043c2 <CopyDataInit>:

CopyDataInit:
  ldr r4, [r2, r3]
 80043c2:	58d4      	ldr	r4, [r2, r3]
  str r4, [r0, r3]
 80043c4:	50c4      	str	r4, [r0, r3]
  adds r3, r3, #4
 80043c6:	3304      	adds	r3, #4

080043c8 <LoopCopyDataInit>:

LoopCopyDataInit:
  adds r4, r0, r3
 80043c8:	18c4      	adds	r4, r0, r3
  cmp r4, r1
 80043ca:	428c      	cmp	r4, r1
  bcc CopyDataInit
 80043cc:	d3f9      	bcc.n	80043c2 <CopyDataInit>
  
/* Zero fill the bss segment. */
  ldr r2, =_sbss
 80043ce:	4a0b      	ldr	r2, [pc, #44]	; (80043fc <LoopForever+0x12>)
  ldr r4, =_ebss
 80043d0:	4c0b      	ldr	r4, [pc, #44]	; (8004400 <LoopForever+0x16>)
  movs r3, #0
 80043d2:	2300      	movs	r3, #0
  b LoopFillZerobss
 80043d4:	e001      	b.n	80043da <LoopFillZerobss>

080043d6 <FillZerobss>:

FillZerobss:
  str  r3, [r2]
 80043d6:	6013      	str	r3, [r2, #0]
  adds r2, r2, #4
 80043d8:	3204      	adds	r2, #4

080043da <LoopFillZerobss>:

LoopFillZerobss:
  cmp r2, r4
 80043da:	42a2      	cmp	r2, r4
  bcc FillZerobss
 80043dc:	d3fb      	bcc.n	80043d6 <FillZerobss>

/* Call the clock system intitialization function.*/
    bl  SystemInit
 80043de:	f7fe fd4d 	bl	8002e7c <SystemInit>
/* Call static constructors */
    bl __libc_init_array
 80043e2:	f000 f811 	bl	8004408 <__libc_init_array>
/* Call the application's entry point.*/
	bl	main
 80043e6:	f7fc ffa9 	bl	800133c <main>

080043ea <LoopForever>:

LoopForever:
    b LoopForever
 80043ea:	e7fe      	b.n	80043ea <LoopForever>
  ldr   sp, =_estack    /* Atollic update: set stack pointer */
 80043ec:	20003000 	.word	0x20003000
  ldr r0, =_sdata
 80043f0:	20000000 	.word	0x20000000
  ldr r1, =_edata
 80043f4:	200006fc 	.word	0x200006fc
  ldr r2, =_sidata
 80043f8:	08004490 	.word	0x08004490
  ldr r2, =_sbss
 80043fc:	200006fc 	.word	0x200006fc
  ldr r4, =_ebss
 8004400:	20000750 	.word	0x20000750

08004404 <ADC1_2_IRQHandler>:
 * @retval : None
*/
    .section	.text.Default_Handler,"ax",%progbits
Default_Handler:
Infinite_Loop:
	b	Infinite_Loop
 8004404:	e7fe      	b.n	8004404 <ADC1_2_IRQHandler>
	...

08004408 <__libc_init_array>:
 8004408:	b570      	push	{r4, r5, r6, lr}
 800440a:	4e0d      	ldr	r6, [pc, #52]	; (8004440 <__libc_init_array+0x38>)
 800440c:	4c0d      	ldr	r4, [pc, #52]	; (8004444 <__libc_init_array+0x3c>)
 800440e:	1ba4      	subs	r4, r4, r6
 8004410:	10a4      	asrs	r4, r4, #2
 8004412:	2500      	movs	r5, #0
 8004414:	42a5      	cmp	r5, r4
 8004416:	d109      	bne.n	800442c <__libc_init_array+0x24>
 8004418:	4e0b      	ldr	r6, [pc, #44]	; (8004448 <__libc_init_array+0x40>)
 800441a:	4c0c      	ldr	r4, [pc, #48]	; (800444c <__libc_init_array+0x44>)
 800441c:	f000 f820 	bl	8004460 <_init>
 8004420:	1ba4      	subs	r4, r4, r6
 8004422:	10a4      	asrs	r4, r4, #2
 8004424:	2500      	movs	r5, #0
 8004426:	42a5      	cmp	r5, r4
 8004428:	d105      	bne.n	8004436 <__libc_init_array+0x2e>
 800442a:	bd70      	pop	{r4, r5, r6, pc}
 800442c:	f856 3025 	ldr.w	r3, [r6, r5, lsl #2]
 8004430:	4798      	blx	r3
 8004432:	3501      	adds	r5, #1
 8004434:	e7ee      	b.n	8004414 <__libc_init_array+0xc>
 8004436:	f856 3025 	ldr.w	r3, [r6, r5, lsl #2]
 800443a:	4798      	blx	r3
 800443c:	3501      	adds	r5, #1
 800443e:	e7f2      	b.n	8004426 <__libc_init_array+0x1e>
 8004440:	08004488 	.word	0x08004488
 8004444:	08004488 	.word	0x08004488
 8004448:	08004488 	.word	0x08004488
 800444c:	0800448c 	.word	0x0800448c

08004450 <memset>:
 8004450:	4402      	add	r2, r0
 8004452:	4603      	mov	r3, r0
 8004454:	4293      	cmp	r3, r2
 8004456:	d100      	bne.n	800445a <memset+0xa>
 8004458:	4770      	bx	lr
 800445a:	f803 1b01 	strb.w	r1, [r3], #1
 800445e:	e7f9      	b.n	8004454 <memset+0x4>

08004460 <_init>:
 8004460:	b5f8      	push	{r3, r4, r5, r6, r7, lr}
 8004462:	bf00      	nop
 8004464:	bcf8      	pop	{r3, r4, r5, r6, r7}
 8004466:	bc08      	pop	{r3}
 8004468:	469e      	mov	lr, r3
 800446a:	4770      	bx	lr

0800446c <_fini>:
 800446c:	b5f8      	push	{r3, r4, r5, r6, r7, lr}
 800446e:	bf00      	nop
 8004470:	bcf8      	pop	{r3, r4, r5, r6, r7}
 8004472:	bc08      	pop	{r3}
 8004474:	469e      	mov	lr, r3
 8004476:	4770      	bx	lr
